
/home/cyh/ysyx-workbench/am-kernels/tests/cpu-tests/build/cache-riscv64-nemu.elf:     file format elf64-littleriscv


Disassembly of section .text:

0000000080000000 <_start>:
    80000000:	00000413          	li	s0,0
    80000004:	00009117          	auipc	sp,0x9
    80000008:	ffc10113          	addi	sp,sp,-4 # 80009000 <_end>
    8000000c:	124000ef          	jal	ra,80000130 <_trm_init>

0000000080000010 <check>:
    80000010:	00050463          	beqz	a0,80000018 <check+0x8>
    80000014:	00008067          	ret
    80000018:	ff010113          	addi	sp,sp,-16
    8000001c:	00100513          	li	a0,1
    80000020:	00113423          	sd	ra,8(sp)
    80000024:	100000ef          	jal	ra,80000124 <halt>

0000000080000028 <main>:
    80000028:	fc010113          	addi	sp,sp,-64
    8000002c:	02913423          	sd	s1,40(sp)
    80000030:	01313c23          	sd	s3,24(sp)
    80000034:	00000497          	auipc	s1,0x0
    80000038:	15c48493          	addi	s1,s1,348 # 80000190 <test_data>
    8000003c:	00000997          	auipc	s3,0x0
    80000040:	11c98993          	addi	s3,s3,284 # 80000158 <ans_data>
    80000044:	03213023          	sd	s2,32(sp)
    80000048:	01413823          	sd	s4,16(sp)
    8000004c:	01513423          	sd	s5,8(sp)
    80000050:	02113c23          	sd	ra,56(sp)
    80000054:	02813823          	sd	s0,48(sp)
    80000058:	00000a17          	auipc	s4,0x0
    8000005c:	170a0a13          	addi	s4,s4,368 # 800001c8 <_bss_start>
    80000060:	00098a93          	mv	s5,s3
    80000064:	00048913          	mv	s2,s1
    80000068:	00092403          	lw	s0,0(s2)
    8000006c:	000aa783          	lw	a5,0(s5)
    80000070:	00490913          	addi	s2,s2,4
    80000074:	004a8a93          	addi	s5,s5,4
    80000078:	40f40433          	sub	s0,s0,a5
    8000007c:	00143413          	seqz	s0,s0
    80000080:	00040513          	mv	a0,s0
    80000084:	f8dff0ef          	jal	ra,80000010 <check>
    80000088:	00040513          	mv	a0,s0
    8000008c:	f85ff0ef          	jal	ra,80000010 <check>
    80000090:	fd491ce3          	bne	s2,s4,80000068 <main+0x40>
    80000094:	00000717          	auipc	a4,0x0
    80000098:	0c470713          	addi	a4,a4,196 # 80000158 <ans_data>
    8000009c:	00000797          	auipc	a5,0x0
    800000a0:	0f478793          	addi	a5,a5,244 # 80000190 <test_data>
    800000a4:	0007a683          	lw	a3,0(a5)
    800000a8:	00072603          	lw	a2,0(a4)
    800000ac:	00478793          	addi	a5,a5,4
    800000b0:	0026869b          	addiw	a3,a3,2
    800000b4:	0026061b          	addiw	a2,a2,2
    800000b8:	00c72023          	sw	a2,0(a4)
    800000bc:	fed7ae23          	sw	a3,-4(a5)
    800000c0:	00470713          	addi	a4,a4,4
    800000c4:	ff4790e3          	bne	a5,s4,800000a4 <main+0x7c>
    800000c8:	0004a403          	lw	s0,0(s1)
    800000cc:	0009a783          	lw	a5,0(s3)
    800000d0:	00448493          	addi	s1,s1,4
    800000d4:	00498993          	addi	s3,s3,4
    800000d8:	40f40433          	sub	s0,s0,a5
    800000dc:	00143413          	seqz	s0,s0
    800000e0:	00040513          	mv	a0,s0
    800000e4:	f2dff0ef          	jal	ra,80000010 <check>
    800000e8:	00040513          	mv	a0,s0
    800000ec:	f25ff0ef          	jal	ra,80000010 <check>
    800000f0:	fd449ce3          	bne	s1,s4,800000c8 <main+0xa0>
    800000f4:	00100513          	li	a0,1
    800000f8:	f19ff0ef          	jal	ra,80000010 <check>
    800000fc:	03813083          	ld	ra,56(sp)
    80000100:	03013403          	ld	s0,48(sp)
    80000104:	02813483          	ld	s1,40(sp)
    80000108:	02013903          	ld	s2,32(sp)
    8000010c:	01813983          	ld	s3,24(sp)
    80000110:	01013a03          	ld	s4,16(sp)
    80000114:	00813a83          	ld	s5,8(sp)
    80000118:	00000513          	li	a0,0
    8000011c:	04010113          	addi	sp,sp,64
    80000120:	00008067          	ret

0000000080000124 <halt>:
    80000124:	00050513          	mv	a0,a0
    80000128:	00100073          	ebreak
    8000012c:	0000006f          	j	8000012c <halt+0x8>

0000000080000130 <_trm_init>:
    80000130:	ff010113          	addi	sp,sp,-16
    80000134:	00000517          	auipc	a0,0x0
    80000138:	01c50513          	addi	a0,a0,28 # 80000150 <_etext>
    8000013c:	00113423          	sd	ra,8(sp)
    80000140:	ee9ff0ef          	jal	ra,80000028 <main>
    80000144:	00050513          	mv	a0,a0
    80000148:	00100073          	ebreak
    8000014c:	0000006f          	j	8000014c <_trm_init+0x1c>
