
/home/cyh/ysyx-workbench/am-kernels/tests/klib-tests/build/test_strcmp-riscv64-nemu.elf:     file format elf64-littleriscv


Disassembly of section .text:

0000000080000000 <_start>:
    80000000:	00000413          	li	s0,0
    80000004:	00011117          	auipc	sp,0x11
    80000008:	ffc10113          	addi	sp,sp,-4 # 80011000 <_end>
    8000000c:	130000ef          	jal	ra,8000013c <_trm_init>

0000000080000010 <test_strcmp>:
    80000010:	fd010113          	addi	sp,sp,-48
    80000014:	00913c23          	sd	s1,24(sp)
    80000018:	00000497          	auipc	s1,0x0
    8000001c:	6f848493          	addi	s1,s1,1784 # 80000710 <test>
    80000020:	02813023          	sd	s0,32(sp)
    80000024:	01213823          	sd	s2,16(sp)
    80000028:	01313423          	sd	s3,8(sp)
    8000002c:	02113423          	sd	ra,40(sp)
    80000030:	00000917          	auipc	s2,0x0
    80000034:	71090913          	addi	s2,s2,1808 # 80000740 <test2>
    80000038:	00000997          	auipc	s3,0x0
    8000003c:	70898993          	addi	s3,s3,1800 # 80000740 <test2>
    80000040:	00048413          	mv	s0,s1
    80000044:	00093583          	ld	a1,0(s2)
    80000048:	00043503          	ld	a0,0(s0)
    8000004c:	168000ef          	jal	ra,800001b4 <strcmp>
    80000050:	08051263          	bnez	a0,800000d4 <test_strcmp+0xc4>
    80000054:	00840413          	addi	s0,s0,8
    80000058:	00890913          	addi	s2,s2,8
    8000005c:	ff3414e3          	bne	s0,s3,80000044 <test_strcmp+0x34>
    80000060:	00000917          	auipc	s2,0x0
    80000064:	71090913          	addi	s2,s2,1808 # 80000770 <test3>
    80000068:	00000417          	auipc	s0,0x0
    8000006c:	6a840413          	addi	s0,s0,1704 # 80000710 <test>
    80000070:	00093583          	ld	a1,0(s2)
    80000074:	00043503          	ld	a0,0(s0)
    80000078:	13c000ef          	jal	ra,800001b4 <strcmp>
    8000007c:	08055063          	bgez	a0,800000fc <test_strcmp+0xec>
    80000080:	00840413          	addi	s0,s0,8
    80000084:	00890913          	addi	s2,s2,8
    80000088:	ff3414e3          	bne	s0,s3,80000070 <test_strcmp+0x60>
    8000008c:	00000417          	auipc	s0,0x0
    80000090:	71440413          	addi	s0,s0,1812 # 800007a0 <test4>
    80000094:	00000917          	auipc	s2,0x0
    80000098:	6a490913          	addi	s2,s2,1700 # 80000738 <test+0x28>
    8000009c:	00043583          	ld	a1,0(s0)
    800000a0:	0004b503          	ld	a0,0(s1)
    800000a4:	110000ef          	jal	ra,800001b4 <strcmp>
    800000a8:	04a05663          	blez	a0,800000f4 <test_strcmp+0xe4>
    800000ac:	00848493          	addi	s1,s1,8
    800000b0:	00840413          	addi	s0,s0,8
    800000b4:	ff2494e3          	bne	s1,s2,8000009c <test_strcmp+0x8c>
    800000b8:	02813083          	ld	ra,40(sp)
    800000bc:	02013403          	ld	s0,32(sp)
    800000c0:	01813483          	ld	s1,24(sp)
    800000c4:	01013903          	ld	s2,16(sp)
    800000c8:	00813983          	ld	s3,8(sp)
    800000cc:	03010113          	addi	sp,sp,48
    800000d0:	00008067          	ret
    800000d4:	00900613          	li	a2,9
    800000d8:	00000597          	auipc	a1,0x0
    800000dc:	3c858593          	addi	a1,a1,968 # 800004a0 <_etext+0x4>
    800000e0:	00000517          	auipc	a0,0x0
    800000e4:	41050513          	addi	a0,a0,1040 # 800004f0 <_etext+0x54>
    800000e8:	0f4000ef          	jal	ra,800001dc <printf>
    800000ec:	00100513          	li	a0,1
    800000f0:	040000ef          	jal	ra,80000130 <halt>
    800000f4:	00f00613          	li	a2,15
    800000f8:	fe1ff06f          	j	800000d8 <test_strcmp+0xc8>
    800000fc:	00c00613          	li	a2,12
    80000100:	fd9ff06f          	j	800000d8 <test_strcmp+0xc8>

0000000080000104 <main>:
    80000104:	ff010113          	addi	sp,sp,-16
    80000108:	00113423          	sd	ra,8(sp)
    8000010c:	f05ff0ef          	jal	ra,80000010 <test_strcmp>
    80000110:	00813083          	ld	ra,8(sp)
    80000114:	00000513          	li	a0,0
    80000118:	01010113          	addi	sp,sp,16
    8000011c:	00008067          	ret

0000000080000120 <putch>:
    80000120:	00500793          	li	a5,5
    80000124:	01d79793          	slli	a5,a5,0x1d
    80000128:	3ea78c23          	sb	a0,1016(a5)
    8000012c:	00008067          	ret

0000000080000130 <halt>:
    80000130:	00050513          	mv	a0,a0
    80000134:	00100073          	ebreak
    80000138:	0000006f          	j	80000138 <halt+0x8>

000000008000013c <_trm_init>:
    8000013c:	ff010113          	addi	sp,sp,-16
    80000140:	00000517          	auipc	a0,0x0
    80000144:	5c850513          	addi	a0,a0,1480 # 80000708 <mainargs>
    80000148:	00113423          	sd	ra,8(sp)
    8000014c:	fb9ff0ef          	jal	ra,80000104 <main>
    80000150:	00050513          	mv	a0,a0
    80000154:	00100073          	ebreak
    80000158:	0000006f          	j	80000158 <_trm_init+0x1c>

000000008000015c <strcpy.part.0>:
    8000015c:	ff010113          	addi	sp,sp,-16
    80000160:	01900613          	li	a2,25
    80000164:	00000597          	auipc	a1,0x0
    80000168:	47c58593          	addi	a1,a1,1148 # 800005e0 <_etext+0x144>
    8000016c:	00000517          	auipc	a0,0x0
    80000170:	38450513          	addi	a0,a0,900 # 800004f0 <_etext+0x54>
    80000174:	00113423          	sd	ra,8(sp)
    80000178:	064000ef          	jal	ra,800001dc <printf>
    8000017c:	00100513          	li	a0,1
    80000180:	fb1ff0ef          	jal	ra,80000130 <halt>

0000000080000184 <strcpy>:
    80000184:	02050263          	beqz	a0,800001a8 <strcpy+0x24>
    80000188:	00050793          	mv	a5,a0
    8000018c:	00058e63          	beqz	a1,800001a8 <strcpy+0x24>
    80000190:	0005c703          	lbu	a4,0(a1)
    80000194:	00178793          	addi	a5,a5,1
    80000198:	00158593          	addi	a1,a1,1
    8000019c:	fee78fa3          	sb	a4,-1(a5)
    800001a0:	fe0718e3          	bnez	a4,80000190 <strcpy+0xc>
    800001a4:	00008067          	ret
    800001a8:	ff010113          	addi	sp,sp,-16
    800001ac:	00113423          	sd	ra,8(sp)
    800001b0:	fadff0ef          	jal	ra,8000015c <strcpy.part.0>

00000000800001b4 <strcmp>:
    800001b4:	00054783          	lbu	a5,0(a0)
    800001b8:	00158593          	addi	a1,a1,1
    800001bc:	00150513          	addi	a0,a0,1
    800001c0:	fff5c703          	lbu	a4,-1(a1)
    800001c4:	00078863          	beqz	a5,800001d4 <strcmp+0x20>
    800001c8:	fee786e3          	beq	a5,a4,800001b4 <strcmp>
    800001cc:	40e7853b          	subw	a0,a5,a4
    800001d0:	00008067          	ret
    800001d4:	40e0053b          	negw	a0,a4
    800001d8:	00008067          	ret

00000000800001dc <printf>:
    800001dc:	f9010113          	addi	sp,sp,-112
    800001e0:	03810313          	addi	t1,sp,56
    800001e4:	02b13c23          	sd	a1,56(sp)
    800001e8:	04c13023          	sd	a2,64(sp)
    800001ec:	00050593          	mv	a1,a0
    800001f0:	00030613          	mv	a2,t1
    800001f4:	00000517          	auipc	a0,0x0
    800001f8:	5d450513          	addi	a0,a0,1492 # 800007c8 <sprint_buf>
    800001fc:	04f13c23          	sd	a5,88(sp)
    80000200:	02113423          	sd	ra,40(sp)
    80000204:	02813023          	sd	s0,32(sp)
    80000208:	00913c23          	sd	s1,24(sp)
    8000020c:	01213823          	sd	s2,16(sp)
    80000210:	04d13423          	sd	a3,72(sp)
    80000214:	04e13823          	sd	a4,80(sp)
    80000218:	07013023          	sd	a6,96(sp)
    8000021c:	07113423          	sd	a7,104(sp)
    80000220:	00613423          	sd	t1,8(sp)
    80000224:	08c000ef          	jal	ra,800002b0 <vsprintf>
    80000228:	000087b7          	lui	a5,0x8
    8000022c:	04a7cc63          	blt	a5,a0,80000284 <printf+0xa8>
    80000230:	00050913          	mv	s2,a0
    80000234:	02a05a63          	blez	a0,80000268 <printf+0x8c>
    80000238:	fff5049b          	addiw	s1,a0,-1
    8000023c:	02049493          	slli	s1,s1,0x20
    80000240:	0204d493          	srli	s1,s1,0x20
    80000244:	00000797          	auipc	a5,0x0
    80000248:	58578793          	addi	a5,a5,1413 # 800007c9 <sprint_buf+0x1>
    8000024c:	00000417          	auipc	s0,0x0
    80000250:	57c40413          	addi	s0,s0,1404 # 800007c8 <sprint_buf>
    80000254:	00f484b3          	add	s1,s1,a5
    80000258:	00044503          	lbu	a0,0(s0)
    8000025c:	00140413          	addi	s0,s0,1
    80000260:	ec1ff0ef          	jal	ra,80000120 <putch>
    80000264:	fe941ae3          	bne	s0,s1,80000258 <printf+0x7c>
    80000268:	02813083          	ld	ra,40(sp)
    8000026c:	02013403          	ld	s0,32(sp)
    80000270:	01813483          	ld	s1,24(sp)
    80000274:	00090513          	mv	a0,s2
    80000278:	01013903          	ld	s2,16(sp)
    8000027c:	07010113          	addi	sp,sp,112
    80000280:	00008067          	ret
    80000284:	00000517          	auipc	a0,0x0
    80000288:	39c50513          	addi	a0,a0,924 # 80000620 <_etext+0x184>
    8000028c:	f51ff0ef          	jal	ra,800001dc <printf>
    80000290:	08d00613          	li	a2,141
    80000294:	00000597          	auipc	a1,0x0
    80000298:	3ac58593          	addi	a1,a1,940 # 80000640 <_etext+0x1a4>
    8000029c:	00000517          	auipc	a0,0x0
    800002a0:	25450513          	addi	a0,a0,596 # 800004f0 <_etext+0x54>
    800002a4:	f39ff0ef          	jal	ra,800001dc <printf>
    800002a8:	00100513          	li	a0,1
    800002ac:	e85ff0ef          	jal	ra,80000130 <halt>

00000000800002b0 <vsprintf>:
    800002b0:	fa010113          	addi	sp,sp,-96
    800002b4:	04813823          	sd	s0,80(sp)
    800002b8:	01713c23          	sd	s7,24(sp)
    800002bc:	04113c23          	sd	ra,88(sp)
    800002c0:	04913423          	sd	s1,72(sp)
    800002c4:	05213023          	sd	s2,64(sp)
    800002c8:	03313c23          	sd	s3,56(sp)
    800002cc:	03413823          	sd	s4,48(sp)
    800002d0:	03513423          	sd	s5,40(sp)
    800002d4:	03613023          	sd	s6,32(sp)
    800002d8:	01813823          	sd	s8,16(sp)
    800002dc:	01913423          	sd	s9,8(sp)
    800002e0:	01a13023          	sd	s10,0(sp)
    800002e4:	0005c783          	lbu	a5,0(a1)
    800002e8:	00050b93          	mv	s7,a0
    800002ec:	00050413          	mv	s0,a0
    800002f0:	18078263          	beqz	a5,80000474 <vsprintf+0x1c4>
    800002f4:	02500913          	li	s2,37
    800002f8:	06c00a93          	li	s5,108
    800002fc:	01600b13          	li	s6,22
    80000300:	00000a17          	auipc	s4,0x0
    80000304:	3a8a0a13          	addi	s4,s4,936 # 800006a8 <_etext+0x20c>
    80000308:	03000c93          	li	s9,48
    8000030c:	00000997          	auipc	s3,0x0
    80000310:	37498993          	addi	s3,s3,884 # 80000680 <_etext+0x1e4>
    80000314:	07100c13          	li	s8,113
    80000318:	05278e63          	beq	a5,s2,80000374 <vsprintf+0xc4>
    8000031c:	00f40023          	sb	a5,0(s0)
    80000320:	00058493          	mv	s1,a1
    80000324:	00140413          	addi	s0,s0,1
    80000328:	0014c783          	lbu	a5,1(s1)
    8000032c:	00148593          	addi	a1,s1,1
    80000330:	fe0794e3          	bnez	a5,80000318 <vsprintf+0x68>
    80000334:	4174053b          	subw	a0,s0,s7
    80000338:	00040023          	sb	zero,0(s0)
    8000033c:	05813083          	ld	ra,88(sp)
    80000340:	05013403          	ld	s0,80(sp)
    80000344:	04813483          	ld	s1,72(sp)
    80000348:	04013903          	ld	s2,64(sp)
    8000034c:	03813983          	ld	s3,56(sp)
    80000350:	03013a03          	ld	s4,48(sp)
    80000354:	02813a83          	ld	s5,40(sp)
    80000358:	02013b03          	ld	s6,32(sp)
    8000035c:	01813b83          	ld	s7,24(sp)
    80000360:	01013c03          	ld	s8,16(sp)
    80000364:	00813c83          	ld	s9,8(sp)
    80000368:	00013d03          	ld	s10,0(sp)
    8000036c:	06010113          	addi	sp,sp,96
    80000370:	00008067          	ret
    80000374:	0015c783          	lbu	a5,1(a1)
    80000378:	0d578463          	beq	a5,s5,80000440 <vsprintf+0x190>
    8000037c:	00158493          	addi	s1,a1,1
    80000380:	fff00713          	li	a4,-1
    80000384:	0d278e63          	beq	a5,s2,80000460 <vsprintf+0x1b0>
    80000388:	f9e7879b          	addiw	a5,a5,-98
    8000038c:	0ff7f793          	zext.b	a5,a5
    80000390:	0efb6663          	bltu	s6,a5,8000047c <vsprintf+0x1cc>
    80000394:	00279793          	slli	a5,a5,0x2
    80000398:	014787b3          	add	a5,a5,s4
    8000039c:	0007a783          	lw	a5,0(a5)
    800003a0:	014787b3          	add	a5,a5,s4
    800003a4:	00078067          	jr	a5
    800003a8:	00063583          	ld	a1,0(a2)
    800003ac:	00040513          	mv	a0,s0
    800003b0:	00860d13          	addi	s10,a2,8
    800003b4:	dd1ff0ef          	jal	ra,80000184 <strcpy>
    800003b8:	000d0613          	mv	a2,s10
    800003bc:	f6dff06f          	j	80000328 <vsprintf+0x78>
    800003c0:	00a00693          	li	a3,10
    800003c4:	00860593          	addi	a1,a2,8
    800003c8:	07570463          	beq	a4,s5,80000430 <vsprintf+0x180>
    800003cc:	07870263          	beq	a4,s8,80000430 <vsprintf+0x180>
    800003d0:	00066783          	lwu	a5,0(a2)
    800003d4:	00079a63          	bnez	a5,800003e8 <vsprintf+0x138>
    800003d8:	01940023          	sb	s9,0(s0)
    800003dc:	00058613          	mv	a2,a1
    800003e0:	00140413          	addi	s0,s0,1
    800003e4:	f45ff06f          	j	80000328 <vsprintf+0x78>
    800003e8:	02d7f733          	remu	a4,a5,a3
    800003ec:	00140413          	addi	s0,s0,1
    800003f0:	00078613          	mv	a2,a5
    800003f4:	00e98733          	add	a4,s3,a4
    800003f8:	00074703          	lbu	a4,0(a4)
    800003fc:	02d7d7b3          	divu	a5,a5,a3
    80000400:	fee40fa3          	sb	a4,-1(s0)
    80000404:	fed672e3          	bgeu	a2,a3,800003e8 <vsprintf+0x138>
    80000408:	00058613          	mv	a2,a1
    8000040c:	f1dff06f          	j	80000328 <vsprintf+0x78>
    80000410:	00062783          	lw	a5,0(a2)
    80000414:	00140413          	addi	s0,s0,1
    80000418:	00860613          	addi	a2,a2,8
    8000041c:	fef40fa3          	sb	a5,-1(s0)
    80000420:	f09ff06f          	j	80000328 <vsprintf+0x78>
    80000424:	00200693          	li	a3,2
    80000428:	00860593          	addi	a1,a2,8
    8000042c:	fb5710e3          	bne	a4,s5,800003cc <vsprintf+0x11c>
    80000430:	00063783          	ld	a5,0(a2)
    80000434:	fa1ff06f          	j	800003d4 <vsprintf+0x124>
    80000438:	01000693          	li	a3,16
    8000043c:	f89ff06f          	j	800003c4 <vsprintf+0x114>
    80000440:	0025c783          	lbu	a5,2(a1)
    80000444:	00258493          	addi	s1,a1,2
    80000448:	06c00713          	li	a4,108
    8000044c:	f3579ce3          	bne	a5,s5,80000384 <vsprintf+0xd4>
    80000450:	0035c783          	lbu	a5,3(a1)
    80000454:	00358493          	addi	s1,a1,3
    80000458:	07100713          	li	a4,113
    8000045c:	f32796e3          	bne	a5,s2,80000388 <vsprintf+0xd8>
    80000460:	01240023          	sb	s2,0(s0)
    80000464:	00140413          	addi	s0,s0,1
    80000468:	ec1ff06f          	j	80000328 <vsprintf+0x78>
    8000046c:	00800693          	li	a3,8
    80000470:	f55ff06f          	j	800003c4 <vsprintf+0x114>
    80000474:	00000513          	li	a0,0
    80000478:	ec1ff06f          	j	80000338 <vsprintf+0x88>
    8000047c:	06100613          	li	a2,97
    80000480:	00000597          	auipc	a1,0x0
    80000484:	1c058593          	addi	a1,a1,448 # 80000640 <_etext+0x1a4>
    80000488:	00000517          	auipc	a0,0x0
    8000048c:	06850513          	addi	a0,a0,104 # 800004f0 <_etext+0x54>
    80000490:	d4dff0ef          	jal	ra,800001dc <printf>
    80000494:	00100513          	li	a0,1
    80000498:	c99ff0ef          	jal	ra,80000130 <halt>
