
/home/cyh/ysyx-workbench/am-kernels/tests/klib-tests/build/test_memcpy-riscv64-nemu.elf:     file format elf64-littleriscv


Disassembly of section .text:

0000000080000000 <_start>:
    80000000:	00000413          	li	s0,0
    80000004:	00011117          	auipc	sp,0x11
    80000008:	ffc10113          	addi	sp,sp,-4 # 80011000 <_end>
    8000000c:	1d8000ef          	jal	ra,800001e4 <_trm_init>

0000000080000010 <test_memcpy>:
    80000010:	f8010113          	addi	sp,sp,-128
    80000014:	03913423          	sd	s9,40(sp)
    80000018:	03a13023          	sd	s10,32(sp)
    8000001c:	00001c97          	auipc	s9,0x1
    80000020:	b4cc8c93          	addi	s9,s9,-1204 # 80000b68 <data>
    80000024:	00001d17          	auipc	s10,0x1
    80000028:	b64d0d13          	addi	s10,s10,-1180 # 80000b88 <data2>
    8000002c:	06813823          	sd	s0,112(sp)
    80000030:	06913423          	sd	s1,104(sp)
    80000034:	07213023          	sd	s2,96(sp)
    80000038:	05613023          	sd	s6,64(sp)
    8000003c:	03713c23          	sd	s7,56(sp)
    80000040:	03813823          	sd	s8,48(sp)
    80000044:	06113c23          	sd	ra,120(sp)
    80000048:	05313c23          	sd	s3,88(sp)
    8000004c:	05413823          	sd	s4,80(sp)
    80000050:	05513423          	sd	s5,72(sp)
    80000054:	01b13c23          	sd	s11,24(sp)
    80000058:	000d0b13          	mv	s6,s10
    8000005c:	000c8493          	mv	s1,s9
    80000060:	00000413          	li	s0,0
    80000064:	06400c13          	li	s8,100
    80000068:	02100b93          	li	s7,33
    8000006c:	02000913          	li	s2,32
    80000070:	00001797          	auipc	a5,0x1
    80000074:	af978793          	addi	a5,a5,-1287 # 80000b69 <data+0x1>
    80000078:	00878a33          	add	s4,a5,s0
    8000007c:	019407b3          	add	a5,s0,s9
    80000080:	0014099b          	addiw	s3,s0,1
    80000084:	00100a93          	li	s5,1
    80000088:	00040d9b          	sext.w	s11,s0
    8000008c:	00f13423          	sd	a5,8(sp)
    80000090:	00100793          	li	a5,1
    80000094:	00fc86b3          	add	a3,s9,a5
    80000098:	00fd0733          	add	a4,s10,a5
    8000009c:	fef68fa3          	sb	a5,-1(a3)
    800000a0:	ff870fa3          	sb	s8,-1(a4)
    800000a4:	00178793          	addi	a5,a5,1
    800000a8:	ff7796e3          	bne	a5,s7,80000094 <test_memcpy+0x84>
    800000ac:	000a8613          	mv	a2,s5
    800000b0:	000b0593          	mv	a1,s6
    800000b4:	00048513          	mv	a0,s1
    800000b8:	14c000ef          	jal	ra,80000204 <memcpy>
    800000bc:	000c8713          	mv	a4,s9
    800000c0:	00000793          	li	a5,0
    800000c4:	03b78a63          	beq	a5,s11,800000f8 <test_memcpy+0xe8>
    800000c8:	00074683          	lbu	a3,0(a4)
    800000cc:	0017879b          	addiw	a5,a5,1
    800000d0:	00170713          	addi	a4,a4,1
    800000d4:	fef688e3          	beq	a3,a5,800000c4 <test_memcpy+0xb4>
    800000d8:	01100613          	li	a2,17
    800000dc:	00001597          	auipc	a1,0x1
    800000e0:	88458593          	addi	a1,a1,-1916 # 80000960 <_etext>
    800000e4:	00001517          	auipc	a0,0x1
    800000e8:	8cc50513          	addi	a0,a0,-1844 # 800009b0 <_etext+0x50>
    800000ec:	3b4000ef          	jal	ra,800004a0 <printf>
    800000f0:	00100513          	li	a0,1
    800000f4:	0e4000ef          	jal	ra,800001d8 <halt>
    800000f8:	033dd463          	bge	s11,s3,80000120 <test_memcpy+0x110>
    800000fc:	fffa869b          	addiw	a3,s5,-1
    80000100:	02069693          	slli	a3,a3,0x20
    80000104:	0206d693          	srli	a3,a3,0x20
    80000108:	019407b3          	add	a5,s0,s9
    8000010c:	00da06b3          	add	a3,s4,a3
    80000110:	0007c703          	lbu	a4,0(a5)
    80000114:	09871863          	bne	a4,s8,800001a4 <test_memcpy+0x194>
    80000118:	00178793          	addi	a5,a5,1
    8000011c:	fed79ae3          	bne	a5,a3,80000110 <test_memcpy+0x100>
    80000120:	0019859b          	addiw	a1,s3,1
    80000124:	00058793          	mv	a5,a1
    80000128:	03298063          	beq	s3,s2,80000148 <test_memcpy+0x138>
    8000012c:	00813703          	ld	a4,8(sp)
    80000130:	01570733          	add	a4,a4,s5
    80000134:	00074683          	lbu	a3,0(a4)
    80000138:	faf690e3          	bne	a3,a5,800000d8 <test_memcpy+0xc8>
    8000013c:	0017879b          	addiw	a5,a5,1
    80000140:	00170713          	addi	a4,a4,1
    80000144:	ff7798e3          	bne	a5,s7,80000134 <test_memcpy+0x124>
    80000148:	001a8a93          	addi	s5,s5,1
    8000014c:	01758663          	beq	a1,s7,80000158 <test_memcpy+0x148>
    80000150:	00058993          	mv	s3,a1
    80000154:	f3dff06f          	j	80000090 <test_memcpy+0x80>
    80000158:	00140413          	addi	s0,s0,1
    8000015c:	00148493          	addi	s1,s1,1
    80000160:	001b0b13          	addi	s6,s6,1
    80000164:	f12416e3          	bne	s0,s2,80000070 <test_memcpy+0x60>
    80000168:	07813083          	ld	ra,120(sp)
    8000016c:	07013403          	ld	s0,112(sp)
    80000170:	06813483          	ld	s1,104(sp)
    80000174:	06013903          	ld	s2,96(sp)
    80000178:	05813983          	ld	s3,88(sp)
    8000017c:	05013a03          	ld	s4,80(sp)
    80000180:	04813a83          	ld	s5,72(sp)
    80000184:	04013b03          	ld	s6,64(sp)
    80000188:	03813b83          	ld	s7,56(sp)
    8000018c:	03013c03          	ld	s8,48(sp)
    80000190:	02813c83          	ld	s9,40(sp)
    80000194:	02013d03          	ld	s10,32(sp)
    80000198:	01813d83          	ld	s11,24(sp)
    8000019c:	08010113          	addi	sp,sp,128
    800001a0:	00008067          	ret
    800001a4:	01900613          	li	a2,25
    800001a8:	f35ff06f          	j	800000dc <test_memcpy+0xcc>

00000000800001ac <main>:
    800001ac:	ff010113          	addi	sp,sp,-16
    800001b0:	00113423          	sd	ra,8(sp)
    800001b4:	e5dff0ef          	jal	ra,80000010 <test_memcpy>
    800001b8:	00813083          	ld	ra,8(sp)
    800001bc:	00000513          	li	a0,0
    800001c0:	01010113          	addi	sp,sp,16
    800001c4:	00008067          	ret

00000000800001c8 <putch>:
    800001c8:	00500793          	li	a5,5
    800001cc:	01d79793          	slli	a5,a5,0x1d
    800001d0:	3ea78c23          	sb	a0,1016(a5)
    800001d4:	00008067          	ret

00000000800001d8 <halt>:
    800001d8:	00050513          	mv	a0,a0
    800001dc:	00100073          	ebreak
    800001e0:	0000006f          	j	800001e0 <halt+0x8>

00000000800001e4 <_trm_init>:
    800001e4:	ff010113          	addi	sp,sp,-16
    800001e8:	00001517          	auipc	a0,0x1
    800001ec:	97850513          	addi	a0,a0,-1672 # 80000b60 <mainargs>
    800001f0:	00113423          	sd	ra,8(sp)
    800001f4:	fb9ff0ef          	jal	ra,800001ac <main>
    800001f8:	00050513          	mv	a0,a0
    800001fc:	00100073          	ebreak
    80000200:	0000006f          	j	80000200 <_trm_init+0x1c>

0000000080000204 <memcpy>:
    80000204:	10050263          	beqz	a0,80000308 <memcpy+0x104>
    80000208:	10058263          	beqz	a1,8000030c <memcpy+0x108>
    8000020c:	fff60893          	addi	a7,a2,-1
    80000210:	0e060c63          	beqz	a2,80000308 <memcpy+0x104>
    80000214:	00158713          	addi	a4,a1,1
    80000218:	40e507b3          	sub	a5,a0,a4
    8000021c:	0077b793          	sltiu	a5,a5,7
    80000220:	0088b693          	sltiu	a3,a7,8
    80000224:	0017c793          	xori	a5,a5,1
    80000228:	0016c693          	xori	a3,a3,1
    8000022c:	00d7f7b3          	and	a5,a5,a3
    80000230:	0ff7f793          	zext.b	a5,a5
    80000234:	0a078863          	beqz	a5,800002e4 <memcpy+0xe0>
    80000238:	00b567b3          	or	a5,a0,a1
    8000023c:	0077f793          	andi	a5,a5,7
    80000240:	0a079263          	bnez	a5,800002e4 <memcpy+0xe0>
    80000244:	ff867813          	andi	a6,a2,-8
    80000248:	00058793          	mv	a5,a1
    8000024c:	00050713          	mv	a4,a0
    80000250:	00b80833          	add	a6,a6,a1
    80000254:	0007b683          	ld	a3,0(a5)
    80000258:	00878793          	addi	a5,a5,8
    8000025c:	00870713          	addi	a4,a4,8
    80000260:	fed73c23          	sd	a3,-8(a4)
    80000264:	ff0798e3          	bne	a5,a6,80000254 <memcpy+0x50>
    80000268:	ff867693          	andi	a3,a2,-8
    8000026c:	00d50733          	add	a4,a0,a3
    80000270:	00d585b3          	add	a1,a1,a3
    80000274:	40d887b3          	sub	a5,a7,a3
    80000278:	08d60863          	beq	a2,a3,80000308 <memcpy+0x104>
    8000027c:	0005c683          	lbu	a3,0(a1)
    80000280:	00d70023          	sb	a3,0(a4)
    80000284:	08078263          	beqz	a5,80000308 <memcpy+0x104>
    80000288:	0015c603          	lbu	a2,1(a1)
    8000028c:	00100693          	li	a3,1
    80000290:	00c700a3          	sb	a2,1(a4)
    80000294:	06d78a63          	beq	a5,a3,80000308 <memcpy+0x104>
    80000298:	0025c603          	lbu	a2,2(a1)
    8000029c:	00200693          	li	a3,2
    800002a0:	00c70123          	sb	a2,2(a4)
    800002a4:	06d78263          	beq	a5,a3,80000308 <memcpy+0x104>
    800002a8:	0035c603          	lbu	a2,3(a1)
    800002ac:	00300693          	li	a3,3
    800002b0:	00c701a3          	sb	a2,3(a4)
    800002b4:	04d78a63          	beq	a5,a3,80000308 <memcpy+0x104>
    800002b8:	0045c603          	lbu	a2,4(a1)
    800002bc:	00400693          	li	a3,4
    800002c0:	00c70223          	sb	a2,4(a4)
    800002c4:	04d78263          	beq	a5,a3,80000308 <memcpy+0x104>
    800002c8:	0055c603          	lbu	a2,5(a1)
    800002cc:	00500693          	li	a3,5
    800002d0:	00c702a3          	sb	a2,5(a4)
    800002d4:	02d78a63          	beq	a5,a3,80000308 <memcpy+0x104>
    800002d8:	0065c783          	lbu	a5,6(a1)
    800002dc:	00f70323          	sb	a5,6(a4)
    800002e0:	00008067          	ret
    800002e4:	00c50633          	add	a2,a0,a2
    800002e8:	00050793          	mv	a5,a0
    800002ec:	0080006f          	j	800002f4 <memcpy+0xf0>
    800002f0:	00170713          	addi	a4,a4,1
    800002f4:	0005c683          	lbu	a3,0(a1)
    800002f8:	00178793          	addi	a5,a5,1
    800002fc:	00070593          	mv	a1,a4
    80000300:	fed78fa3          	sb	a3,-1(a5)
    80000304:	fef616e3          	bne	a2,a5,800002f0 <memcpy+0xec>
    80000308:	00008067          	ret
    8000030c:	00000513          	li	a0,0
    80000310:	00008067          	ret

0000000080000314 <number>:
    80000314:	0207f793          	andi	a5,a5,32
    80000318:	fb010113          	addi	sp,sp,-80
    8000031c:	00078e63          	beqz	a5,80000338 <number+0x24>
    80000320:	01000813          	li	a6,16
    80000324:	13060263          	beq	a2,a6,80000448 <number+0x134>
    80000328:	00800813          	li	a6,8
    8000032c:	15060663          	beq	a2,a6,80000478 <number+0x164>
    80000330:	00200813          	li	a6,2
    80000334:	11060a63          	beq	a2,a6,80000448 <number+0x134>
    80000338:	0c059863          	bnez	a1,80000408 <number+0xf4>
    8000033c:	03000593          	li	a1,48
    80000340:	00b10423          	sb	a1,8(sp)
    80000344:	03000293          	li	t0,48
    80000348:	00000813          	li	a6,0
    8000034c:	00100893          	li	a7,1
    80000350:	00810f93          	addi	t6,sp,8
    80000354:	0008859b          	sext.w	a1,a7
    80000358:	00e8d463          	bge	a7,a4,80000360 <number+0x4c>
    8000035c:	0007059b          	sext.w	a1,a4
    80000360:	40b6873b          	subw	a4,a3,a1
    80000364:	12e05a63          	blez	a4,80000498 <number+0x184>
    80000368:	00e50733          	add	a4,a0,a4
    8000036c:	02000313          	li	t1,32
    80000370:	00150513          	addi	a0,a0,1
    80000374:	fe650fa3          	sb	t1,-1(a0)
    80000378:	fee51ce3          	bne	a0,a4,80000370 <number+0x5c>
    8000037c:	00078e63          	beqz	a5,80000398 <number+0x84>
    80000380:	00800793          	li	a5,8
    80000384:	0cf60663          	beq	a2,a5,80000450 <number+0x13c>
    80000388:	01000793          	li	a5,16
    8000038c:	0ef60a63          	beq	a2,a5,80000480 <number+0x16c>
    80000390:	00200793          	li	a5,2
    80000394:	0cf60663          	beq	a2,a5,80000460 <number+0x14c>
    80000398:	00070513          	mv	a0,a4
    8000039c:	02b8d663          	bge	a7,a1,800003c8 <number+0xb4>
    800003a0:	4115853b          	subw	a0,a1,a7
    800003a4:	fff5051b          	addiw	a0,a0,-1
    800003a8:	02051513          	slli	a0,a0,0x20
    800003ac:	02055513          	srli	a0,a0,0x20
    800003b0:	00150513          	addi	a0,a0,1
    800003b4:	00a70533          	add	a0,a4,a0
    800003b8:	03000793          	li	a5,48
    800003bc:	00170713          	addi	a4,a4,1
    800003c0:	fef70fa3          	sb	a5,-1(a4)
    800003c4:	fea71ce3          	bne	a4,a0,800003bc <number+0xa8>
    800003c8:	010f86b3          	add	a3,t6,a6
    800003cc:	00050713          	mv	a4,a0
    800003d0:	00100613          	li	a2,1
    800003d4:	0080006f          	j	800003dc <number+0xc8>
    800003d8:	0006c283          	lbu	t0,0(a3)
    800003dc:	00170713          	addi	a4,a4,1
    800003e0:	40e607bb          	subw	a5,a2,a4
    800003e4:	010787bb          	addw	a5,a5,a6
    800003e8:	00a787bb          	addw	a5,a5,a0
    800003ec:	fe570fa3          	sb	t0,-1(a4)
    800003f0:	fff68693          	addi	a3,a3,-1
    800003f4:	fef042e3          	bgtz	a5,800003d8 <number+0xc4>
    800003f8:	0018081b          	addiw	a6,a6,1
    800003fc:	01050533          	add	a0,a0,a6
    80000400:	05010113          	addi	sp,sp,80
    80000404:	00008067          	ret
    80000408:	00810f93          	addi	t6,sp,8
    8000040c:	000f8e13          	mv	t3,t6
    80000410:	00000893          	li	a7,0
    80000414:	00000f17          	auipc	t5,0x0
    80000418:	5bcf0f13          	addi	t5,t5,1468 # 800009d0 <_etext+0x70>
    8000041c:	02c5f333          	remu	t1,a1,a2
    80000420:	001e0e13          	addi	t3,t3,1
    80000424:	00058e93          	mv	t4,a1
    80000428:	00088813          	mv	a6,a7
    8000042c:	0018889b          	addiw	a7,a7,1
    80000430:	006f0333          	add	t1,t5,t1
    80000434:	00034283          	lbu	t0,0(t1)
    80000438:	02c5d5b3          	divu	a1,a1,a2
    8000043c:	fe5e0fa3          	sb	t0,-1(t3)
    80000440:	fccefee3          	bgeu	t4,a2,8000041c <number+0x108>
    80000444:	f11ff06f          	j	80000354 <number+0x40>
    80000448:	ffe6869b          	addiw	a3,a3,-2
    8000044c:	eedff06f          	j	80000338 <number+0x24>
    80000450:	03000793          	li	a5,48
    80000454:	00f70023          	sb	a5,0(a4)
    80000458:	00170713          	addi	a4,a4,1
    8000045c:	f3dff06f          	j	80000398 <number+0x84>
    80000460:	03000793          	li	a5,48
    80000464:	00f70023          	sb	a5,0(a4)
    80000468:	06200793          	li	a5,98
    8000046c:	00f700a3          	sb	a5,1(a4)
    80000470:	00270713          	addi	a4,a4,2
    80000474:	f25ff06f          	j	80000398 <number+0x84>
    80000478:	fff6869b          	addiw	a3,a3,-1
    8000047c:	ebdff06f          	j	80000338 <number+0x24>
    80000480:	03000793          	li	a5,48
    80000484:	00f70023          	sb	a5,0(a4)
    80000488:	07800793          	li	a5,120
    8000048c:	00f700a3          	sb	a5,1(a4)
    80000490:	00270713          	addi	a4,a4,2
    80000494:	f05ff06f          	j	80000398 <number+0x84>
    80000498:	00050713          	mv	a4,a0
    8000049c:	ee1ff06f          	j	8000037c <number+0x68>

00000000800004a0 <printf>:
    800004a0:	f9010113          	addi	sp,sp,-112
    800004a4:	03810313          	addi	t1,sp,56
    800004a8:	02b13c23          	sd	a1,56(sp)
    800004ac:	04c13023          	sd	a2,64(sp)
    800004b0:	00050593          	mv	a1,a0
    800004b4:	00030613          	mv	a2,t1
    800004b8:	00000517          	auipc	a0,0x0
    800004bc:	6f050513          	addi	a0,a0,1776 # 80000ba8 <sprint_buf>
    800004c0:	04f13c23          	sd	a5,88(sp)
    800004c4:	02113423          	sd	ra,40(sp)
    800004c8:	02813023          	sd	s0,32(sp)
    800004cc:	00913c23          	sd	s1,24(sp)
    800004d0:	01213823          	sd	s2,16(sp)
    800004d4:	04d13423          	sd	a3,72(sp)
    800004d8:	04e13823          	sd	a4,80(sp)
    800004dc:	07013023          	sd	a6,96(sp)
    800004e0:	07113423          	sd	a7,104(sp)
    800004e4:	00613423          	sd	t1,8(sp)
    800004e8:	08c000ef          	jal	ra,80000574 <vsprintf>
    800004ec:	000087b7          	lui	a5,0x8
    800004f0:	04a7cc63          	blt	a5,a0,80000548 <printf+0xa8>
    800004f4:	00050913          	mv	s2,a0
    800004f8:	02a05a63          	blez	a0,8000052c <printf+0x8c>
    800004fc:	fff5049b          	addiw	s1,a0,-1
    80000500:	02049493          	slli	s1,s1,0x20
    80000504:	0204d493          	srli	s1,s1,0x20
    80000508:	00000797          	auipc	a5,0x0
    8000050c:	6a178793          	addi	a5,a5,1697 # 80000ba9 <sprint_buf+0x1>
    80000510:	00000417          	auipc	s0,0x0
    80000514:	69840413          	addi	s0,s0,1688 # 80000ba8 <sprint_buf>
    80000518:	00f484b3          	add	s1,s1,a5
    8000051c:	00044503          	lbu	a0,0(s0)
    80000520:	00140413          	addi	s0,s0,1
    80000524:	ca5ff0ef          	jal	ra,800001c8 <putch>
    80000528:	fe941ae3          	bne	s0,s1,8000051c <printf+0x7c>
    8000052c:	02813083          	ld	ra,40(sp)
    80000530:	02013403          	ld	s0,32(sp)
    80000534:	01813483          	ld	s1,24(sp)
    80000538:	00090513          	mv	a0,s2
    8000053c:	01013903          	ld	s2,16(sp)
    80000540:	07010113          	addi	sp,sp,112
    80000544:	00008067          	ret
    80000548:	00000517          	auipc	a0,0x0
    8000054c:	4b050513          	addi	a0,a0,1200 # 800009f8 <_etext+0x98>
    80000550:	f51ff0ef          	jal	ra,800004a0 <printf>
    80000554:	10200613          	li	a2,258
    80000558:	00000597          	auipc	a1,0x0
    8000055c:	4c058593          	addi	a1,a1,1216 # 80000a18 <_etext+0xb8>
    80000560:	00000517          	auipc	a0,0x0
    80000564:	45050513          	addi	a0,a0,1104 # 800009b0 <_etext+0x50>
    80000568:	f39ff0ef          	jal	ra,800004a0 <printf>
    8000056c:	00100513          	li	a0,1
    80000570:	c69ff0ef          	jal	ra,800001d8 <halt>

0000000080000574 <vsprintf>:
    80000574:	fb010113          	addi	sp,sp,-80
    80000578:	04813023          	sd	s0,64(sp)
    8000057c:	04113423          	sd	ra,72(sp)
    80000580:	02913c23          	sd	s1,56(sp)
    80000584:	03213823          	sd	s2,48(sp)
    80000588:	03313423          	sd	s3,40(sp)
    8000058c:	03413023          	sd	s4,32(sp)
    80000590:	01513c23          	sd	s5,24(sp)
    80000594:	01613823          	sd	s6,16(sp)
    80000598:	0005c783          	lbu	a5,0(a1)
    8000059c:	00050413          	mv	s0,a0
    800005a0:	38078263          	beqz	a5,80000924 <vsprintf+0x3b0>
    800005a4:	00058813          	mv	a6,a1
    800005a8:	00060993          	mv	s3,a2
    800005ac:	02500913          	li	s2,37
    800005b0:	03000a93          	li	s5,48
    800005b4:	00000b17          	auipc	s6,0x0
    800005b8:	4a0b0b13          	addi	s6,s6,1184 # 80000a54 <_etext+0xf4>
    800005bc:	00000497          	auipc	s1,0x0
    800005c0:	51c48493          	addi	s1,s1,1308 # 80000ad8 <_etext+0x178>
    800005c4:	03900a13          	li	s4,57
    800005c8:	05278663          	beq	a5,s2,80000614 <vsprintf+0xa0>
    800005cc:	00f50023          	sb	a5,0(a0)
    800005d0:	00150513          	addi	a0,a0,1
    800005d4:	00184783          	lbu	a5,1(a6)
    800005d8:	00180813          	addi	a6,a6,1
    800005dc:	fe0796e3          	bnez	a5,800005c8 <vsprintf+0x54>
    800005e0:	4085043b          	subw	s0,a0,s0
    800005e4:	00050023          	sb	zero,0(a0)
    800005e8:	04813083          	ld	ra,72(sp)
    800005ec:	00040513          	mv	a0,s0
    800005f0:	04013403          	ld	s0,64(sp)
    800005f4:	03813483          	ld	s1,56(sp)
    800005f8:	03013903          	ld	s2,48(sp)
    800005fc:	02813983          	ld	s3,40(sp)
    80000600:	02013a03          	ld	s4,32(sp)
    80000604:	01813a83          	ld	s5,24(sp)
    80000608:	01013b03          	ld	s6,16(sp)
    8000060c:	05010113          	addi	sp,sp,80
    80000610:	00008067          	ret
    80000614:	00000793          	li	a5,0
    80000618:	02300713          	li	a4,35
    8000061c:	00184583          	lbu	a1,1(a6)
    80000620:	00180813          	addi	a6,a6,1
    80000624:	00e58c63          	beq	a1,a4,8000063c <vsprintf+0xc8>
    80000628:	01559e63          	bne	a1,s5,80000644 <vsprintf+0xd0>
    8000062c:	00184583          	lbu	a1,1(a6)
    80000630:	0017e793          	ori	a5,a5,1
    80000634:	00180813          	addi	a6,a6,1
    80000638:	fee598e3          	bne	a1,a4,80000628 <vsprintf+0xb4>
    8000063c:	0207e793          	ori	a5,a5,32
    80000640:	fddff06f          	j	8000061c <vsprintf+0xa8>
    80000644:	fd05871b          	addiw	a4,a1,-48
    80000648:	0ff77713          	zext.b	a4,a4
    8000064c:	00900613          	li	a2,9
    80000650:	fff00693          	li	a3,-1
    80000654:	1ce67263          	bgeu	a2,a4,80000818 <vsprintf+0x2a4>
    80000658:	02e00613          	li	a2,46
    8000065c:	fff00713          	li	a4,-1
    80000660:	16c58463          	beq	a1,a2,800007c8 <vsprintf+0x254>
    80000664:	06c00613          	li	a2,108
    80000668:	fff00893          	li	a7,-1
    8000066c:	02c58663          	beq	a1,a2,80000698 <vsprintf+0x124>
    80000670:	1f258863          	beq	a1,s2,80000860 <vsprintf+0x2ec>
    80000674:	fa85859b          	addiw	a1,a1,-88
    80000678:	0ff5f593          	zext.b	a1,a1
    8000067c:	02000613          	li	a2,32
    80000680:	2ab66663          	bltu	a2,a1,8000092c <vsprintf+0x3b8>
    80000684:	00259593          	slli	a1,a1,0x2
    80000688:	016585b3          	add	a1,a1,s6
    8000068c:	0005a603          	lw	a2,0(a1)
    80000690:	01660633          	add	a2,a2,s6
    80000694:	00060067          	jr	a2
    80000698:	00184603          	lbu	a2,1(a6)
    8000069c:	1ab60a63          	beq	a2,a1,80000850 <vsprintf+0x2dc>
    800006a0:	00180813          	addi	a6,a6,1
    800006a4:	1b260e63          	beq	a2,s2,80000860 <vsprintf+0x2ec>
    800006a8:	fa86061b          	addiw	a2,a2,-88
    800006ac:	0ff67613          	zext.b	a2,a2
    800006b0:	02000593          	li	a1,32
    800006b4:	26c5ec63          	bltu	a1,a2,8000092c <vsprintf+0x3b8>
    800006b8:	00261613          	slli	a2,a2,0x2
    800006bc:	00960633          	add	a2,a2,s1
    800006c0:	00062603          	lw	a2,0(a2)
    800006c4:	00960633          	add	a2,a2,s1
    800006c8:	00060067          	jr	a2
    800006cc:	0009b603          	ld	a2,0(s3)
    800006d0:	00898993          	addi	s3,s3,8
    800006d4:	00060793          	mv	a5,a2
    800006d8:	00e605b3          	add	a1,a2,a4
    800006dc:	00071863          	bnez	a4,800006ec <vsprintf+0x178>
    800006e0:	2740006f          	j	80000954 <vsprintf+0x3e0>
    800006e4:	00178793          	addi	a5,a5,1
    800006e8:	00b78663          	beq	a5,a1,800006f4 <vsprintf+0x180>
    800006ec:	0007c703          	lbu	a4,0(a5)
    800006f0:	fe071ae3          	bnez	a4,800006e4 <vsprintf+0x170>
    800006f4:	40c787bb          	subw	a5,a5,a2
    800006f8:	04d7d263          	bge	a5,a3,8000073c <vsprintf+0x1c8>
    800006fc:	00050713          	mv	a4,a0
    80000700:	0006889b          	sext.w	a7,a3
    80000704:	02000313          	li	t1,32
    80000708:	00170713          	addi	a4,a4,1
    8000070c:	40e505bb          	subw	a1,a0,a4
    80000710:	011585bb          	addw	a1,a1,a7
    80000714:	fe670fa3          	sb	t1,-1(a4)
    80000718:	feb7c8e3          	blt	a5,a1,80000708 <vsprintf+0x194>
    8000071c:	00100713          	li	a4,1
    80000720:	00d7dc63          	bge	a5,a3,80000738 <vsprintf+0x1c4>
    80000724:	fff8871b          	addiw	a4,a7,-1
    80000728:	40f7073b          	subw	a4,a4,a5
    8000072c:	02071713          	slli	a4,a4,0x20
    80000730:	02075713          	srli	a4,a4,0x20
    80000734:	00170713          	addi	a4,a4,1
    80000738:	00e50533          	add	a0,a0,a4
    8000073c:	e8f05ce3          	blez	a5,800005d4 <vsprintf+0x60>
    80000740:	00f605b3          	add	a1,a2,a5
    80000744:	00050713          	mv	a4,a0
    80000748:	00064683          	lbu	a3,0(a2)
    8000074c:	00160613          	addi	a2,a2,1
    80000750:	00170713          	addi	a4,a4,1
    80000754:	fed70fa3          	sb	a3,-1(a4)
    80000758:	fec598e3          	bne	a1,a2,80000748 <vsprintf+0x1d4>
    8000075c:	00f50533          	add	a0,a0,a5
    80000760:	e75ff06f          	j	800005d4 <vsprintf+0x60>
    80000764:	fff00613          	li	a2,-1
    80000768:	14c68663          	beq	a3,a2,800008b4 <vsprintf+0x340>
    8000076c:	0009b583          	ld	a1,0(s3)
    80000770:	01000613          	li	a2,16
    80000774:	01013423          	sd	a6,8(sp)
    80000778:	b9dff0ef          	jal	ra,80000314 <number>
    8000077c:	00813803          	ld	a6,8(sp)
    80000780:	00898993          	addi	s3,s3,8
    80000784:	e51ff06f          	j	800005d4 <vsprintf+0x60>
    80000788:	00100793          	li	a5,1
    8000078c:	18d7d863          	bge	a5,a3,8000091c <vsprintf+0x3a8>
    80000790:	ffe6879b          	addiw	a5,a3,-2
    80000794:	02079793          	slli	a5,a5,0x20
    80000798:	0207d793          	srli	a5,a5,0x20
    8000079c:	00178793          	addi	a5,a5,1
    800007a0:	00f507b3          	add	a5,a0,a5
    800007a4:	02000713          	li	a4,32
    800007a8:	00150513          	addi	a0,a0,1
    800007ac:	fee50fa3          	sb	a4,-1(a0)
    800007b0:	fea79ce3          	bne	a5,a0,800007a8 <vsprintf+0x234>
    800007b4:	0009a703          	lw	a4,0(s3)
    800007b8:	00178513          	addi	a0,a5,1
    800007bc:	00898993          	addi	s3,s3,8
    800007c0:	00e78023          	sb	a4,0(a5)
    800007c4:	e11ff06f          	j	800005d4 <vsprintf+0x60>
    800007c8:	00184583          	lbu	a1,1(a6)
    800007cc:	00900893          	li	a7,9
    800007d0:	00180813          	addi	a6,a6,1
    800007d4:	fd05861b          	addiw	a2,a1,-48
    800007d8:	0ff67613          	zext.b	a2,a2
    800007dc:	00000713          	li	a4,0
    800007e0:	e8c8e2e3          	bltu	a7,a2,80000664 <vsprintf+0xf0>
    800007e4:	0005889b          	sext.w	a7,a1
    800007e8:	02f00313          	li	t1,47
    800007ec:	0027161b          	slliw	a2,a4,0x2
    800007f0:	00184583          	lbu	a1,1(a6)
    800007f4:	00e6073b          	addw	a4,a2,a4
    800007f8:	0017171b          	slliw	a4,a4,0x1
    800007fc:	0117073b          	addw	a4,a4,a7
    80000800:	00180813          	addi	a6,a6,1
    80000804:	fd07071b          	addiw	a4,a4,-48
    80000808:	0005889b          	sext.w	a7,a1
    8000080c:	e4b35ce3          	bge	t1,a1,80000664 <vsprintf+0xf0>
    80000810:	fd1a5ee3          	bge	s4,a7,800007ec <vsprintf+0x278>
    80000814:	e51ff06f          	j	80000664 <vsprintf+0xf0>
    80000818:	0005861b          	sext.w	a2,a1
    8000081c:	00000693          	li	a3,0
    80000820:	02f00893          	li	a7,47
    80000824:	0026971b          	slliw	a4,a3,0x2
    80000828:	00184583          	lbu	a1,1(a6)
    8000082c:	00d7073b          	addw	a4,a4,a3
    80000830:	0017171b          	slliw	a4,a4,0x1
    80000834:	00c7073b          	addw	a4,a4,a2
    80000838:	00180813          	addi	a6,a6,1
    8000083c:	fd07069b          	addiw	a3,a4,-48
    80000840:	0005861b          	sext.w	a2,a1
    80000844:	e0b8dae3          	bge	a7,a1,80000658 <vsprintf+0xe4>
    80000848:	fcca5ee3          	bge	s4,a2,80000824 <vsprintf+0x2b0>
    8000084c:	e0dff06f          	j	80000658 <vsprintf+0xe4>
    80000850:	00284583          	lbu	a1,2(a6)
    80000854:	07100893          	li	a7,113
    80000858:	00280813          	addi	a6,a6,2
    8000085c:	e1259ce3          	bne	a1,s2,80000674 <vsprintf+0x100>
    80000860:	01250023          	sb	s2,0(a0)
    80000864:	00150513          	addi	a0,a0,1
    80000868:	d6dff06f          	j	800005d4 <vsprintf+0x60>
    8000086c:	01000613          	li	a2,16
    80000870:	07100593          	li	a1,113
    80000874:	00898313          	addi	t1,s3,8
    80000878:	02b88863          	beq	a7,a1,800008a8 <vsprintf+0x334>
    8000087c:	0009e583          	lwu	a1,0(s3)
    80000880:	00030993          	mv	s3,t1
    80000884:	01013423          	sd	a6,8(sp)
    80000888:	a8dff0ef          	jal	ra,80000314 <number>
    8000088c:	00813803          	ld	a6,8(sp)
    80000890:	d45ff06f          	j	800005d4 <vsprintf+0x60>
    80000894:	07100593          	li	a1,113
    80000898:	0407e793          	ori	a5,a5,64
    8000089c:	01000613          	li	a2,16
    800008a0:	00898313          	addi	t1,s3,8
    800008a4:	fcb89ce3          	bne	a7,a1,8000087c <vsprintf+0x308>
    800008a8:	0009b583          	ld	a1,0(s3)
    800008ac:	00030993          	mv	s3,t1
    800008b0:	fd5ff06f          	j	80000884 <vsprintf+0x310>
    800008b4:	0009b583          	ld	a1,0(s3)
    800008b8:	0017e793          	ori	a5,a5,1
    800008bc:	01000693          	li	a3,16
    800008c0:	01000613          	li	a2,16
    800008c4:	01013423          	sd	a6,8(sp)
    800008c8:	a4dff0ef          	jal	ra,80000314 <number>
    800008cc:	00813803          	ld	a6,8(sp)
    800008d0:	00898993          	addi	s3,s3,8
    800008d4:	d01ff06f          	j	800005d4 <vsprintf+0x60>
    800008d8:	00800613          	li	a2,8
    800008dc:	f95ff06f          	j	80000870 <vsprintf+0x2fc>
    800008e0:	00a00613          	li	a2,10
    800008e4:	f8dff06f          	j	80000870 <vsprintf+0x2fc>
    800008e8:	00200613          	li	a2,2
    800008ec:	f85ff06f          	j	80000870 <vsprintf+0x2fc>
    800008f0:	00200613          	li	a2,2
    800008f4:	0009b583          	ld	a1,0(s3)
    800008f8:	00898993          	addi	s3,s3,8
    800008fc:	f89ff06f          	j	80000884 <vsprintf+0x310>
    80000900:	00a00613          	li	a2,10
    80000904:	ff1ff06f          	j	800008f4 <vsprintf+0x380>
    80000908:	0407e793          	ori	a5,a5,64
    8000090c:	01000613          	li	a2,16
    80000910:	fe5ff06f          	j	800008f4 <vsprintf+0x380>
    80000914:	01000613          	li	a2,16
    80000918:	fddff06f          	j	800008f4 <vsprintf+0x380>
    8000091c:	00050793          	mv	a5,a0
    80000920:	e95ff06f          	j	800007b4 <vsprintf+0x240>
    80000924:	00000413          	li	s0,0
    80000928:	cbdff06f          	j	800005e4 <vsprintf+0x70>
    8000092c:	0d900613          	li	a2,217
    80000930:	00000597          	auipc	a1,0x0
    80000934:	0e858593          	addi	a1,a1,232 # 80000a18 <_etext+0xb8>
    80000938:	00000517          	auipc	a0,0x0
    8000093c:	07850513          	addi	a0,a0,120 # 800009b0 <_etext+0x50>
    80000940:	b61ff0ef          	jal	ra,800004a0 <printf>
    80000944:	00100513          	li	a0,1
    80000948:	891ff0ef          	jal	ra,800001d8 <halt>
    8000094c:	00800613          	li	a2,8
    80000950:	fa5ff06f          	j	800008f4 <vsprintf+0x380>
    80000954:	00000793          	li	a5,0
    80000958:	dad042e3          	bgtz	a3,800006fc <vsprintf+0x188>
    8000095c:	c79ff06f          	j	800005d4 <vsprintf+0x60>
