
/home/cyh/ysyx-workbench/am-kernels/tests/klib-tests/build/test_printf-riscv64-nemu.elf:     file format elf64-littleriscv


Disassembly of section .text:

0000000080000000 <_start>:
    80000000:	00000413          	li	s0,0
    80000004:	00011117          	auipc	sp,0x11
    80000008:	ffc10113          	addi	sp,sp,-4 # 80011000 <_end>
    8000000c:	12c000ef          	jal	ra,80000138 <_trm_init>

0000000080000010 <main>:
    80000010:	fe010113          	addi	sp,sp,-32
    80000014:	00000597          	auipc	a1,0x0
    80000018:	62c58593          	addi	a1,a1,1580 # 80000640 <_etext>
    8000001c:	00000517          	auipc	a0,0x0
    80000020:	63450513          	addi	a0,a0,1588 # 80000650 <_etext+0x10>
    80000024:	00113c23          	sd	ra,24(sp)
    80000028:	130000ef          	jal	ra,80000158 <printf>
    8000002c:	00000517          	auipc	a0,0x0
    80000030:	61450513          	addi	a0,a0,1556 # 80000640 <_etext>
    80000034:	124000ef          	jal	ra,80000158 <printf>
    80000038:	00200693          	li	a3,2
    8000003c:	00100613          	li	a2,1
    80000040:	00100593          	li	a1,1
    80000044:	00000517          	auipc	a0,0x0
    80000048:	61450513          	addi	a0,a0,1556 # 80000658 <_etext+0x18>
    8000004c:	10c000ef          	jal	ra,80000158 <printf>
    80000050:	00c00693          	li	a3,12
    80000054:	00a00613          	li	a2,10
    80000058:	00200593          	li	a1,2
    8000005c:	00000517          	auipc	a0,0x0
    80000060:	5fc50513          	addi	a0,a0,1532 # 80000658 <_etext+0x18>
    80000064:	0f4000ef          	jal	ra,80000158 <printf>
    80000068:	00000697          	auipc	a3,0x0
    8000006c:	60068693          	addi	a3,a3,1536 # 80000668 <_etext+0x28>
    80000070:	00a00613          	li	a2,10
    80000074:	00200593          	li	a1,2
    80000078:	00000517          	auipc	a0,0x0
    8000007c:	5f850513          	addi	a0,a0,1528 # 80000670 <_etext+0x30>
    80000080:	0d8000ef          	jal	ra,80000158 <printf>
    80000084:	00c00693          	li	a3,12
    80000088:	00a00613          	li	a2,10
    8000008c:	00200593          	li	a1,2
    80000090:	00000517          	auipc	a0,0x0
    80000094:	5f050513          	addi	a0,a0,1520 # 80000680 <_etext+0x40>
    80000098:	0c0000ef          	jal	ra,80000158 <printf>
    8000009c:	000037b7          	lui	a5,0x3
    800000a0:	23178793          	addi	a5,a5,561 # 3231 <_entry_offset+0x3231>
    800000a4:	00010693          	mv	a3,sp
    800000a8:	00a00613          	li	a2,10
    800000ac:	00200593          	li	a1,2
    800000b0:	00000517          	auipc	a0,0x0
    800000b4:	5c050513          	addi	a0,a0,1472 # 80000670 <_etext+0x30>
    800000b8:	00f13023          	sd	a5,0(sp)
    800000bc:	00011423          	sh	zero,8(sp)
    800000c0:	098000ef          	jal	ra,80000158 <printf>
    800000c4:	00114703          	lbu	a4,1(sp)
    800000c8:	00014683          	lbu	a3,0(sp)
    800000cc:	00a00613          	li	a2,10
    800000d0:	00200593          	li	a1,2
    800000d4:	00000517          	auipc	a0,0x0
    800000d8:	5c450513          	addi	a0,a0,1476 # 80000698 <_etext+0x58>
    800000dc:	07c000ef          	jal	ra,80000158 <printf>
    800000e0:	01000713          	li	a4,16
    800000e4:	04000693          	li	a3,64
    800000e8:	01000613          	li	a2,16
    800000ec:	01000593          	li	a1,16
    800000f0:	00000517          	auipc	a0,0x0
    800000f4:	5b850513          	addi	a0,a0,1464 # 800006a8 <_etext+0x68>
    800000f8:	060000ef          	jal	ra,80000158 <printf>
    800000fc:	37800593          	li	a1,888
    80000100:	00000517          	auipc	a0,0x0
    80000104:	5c050513          	addi	a0,a0,1472 # 800006c0 <_etext+0x80>
    80000108:	050000ef          	jal	ra,80000158 <printf>
    8000010c:	01813083          	ld	ra,24(sp)
    80000110:	00000513          	li	a0,0
    80000114:	02010113          	addi	sp,sp,32
    80000118:	00008067          	ret

000000008000011c <putch>:
    8000011c:	00500793          	li	a5,5
    80000120:	01d79793          	slli	a5,a5,0x1d
    80000124:	3ea78c23          	sb	a0,1016(a5)
    80000128:	00008067          	ret

000000008000012c <halt>:
    8000012c:	00050513          	mv	a0,a0
    80000130:	00100073          	ebreak
    80000134:	0000006f          	j	80000134 <halt+0x8>

0000000080000138 <_trm_init>:
    80000138:	ff010113          	addi	sp,sp,-16
    8000013c:	00000517          	auipc	a0,0x0
    80000140:	72c50513          	addi	a0,a0,1836 # 80000868 <mainargs>
    80000144:	00113423          	sd	ra,8(sp)
    80000148:	ec9ff0ef          	jal	ra,80000010 <main>
    8000014c:	00050513          	mv	a0,a0
    80000150:	00100073          	ebreak
    80000154:	0000006f          	j	80000154 <_trm_init+0x1c>

0000000080000158 <printf>:
    80000158:	f9010113          	addi	sp,sp,-112
    8000015c:	03810313          	addi	t1,sp,56
    80000160:	02b13c23          	sd	a1,56(sp)
    80000164:	04c13023          	sd	a2,64(sp)
    80000168:	00050593          	mv	a1,a0
    8000016c:	00030613          	mv	a2,t1
    80000170:	00000517          	auipc	a0,0x0
    80000174:	70050513          	addi	a0,a0,1792 # 80000870 <sprint_buf>
    80000178:	04f13c23          	sd	a5,88(sp)
    8000017c:	02113423          	sd	ra,40(sp)
    80000180:	02813023          	sd	s0,32(sp)
    80000184:	00913c23          	sd	s1,24(sp)
    80000188:	01213823          	sd	s2,16(sp)
    8000018c:	04d13423          	sd	a3,72(sp)
    80000190:	04e13823          	sd	a4,80(sp)
    80000194:	07013023          	sd	a6,96(sp)
    80000198:	07113423          	sd	a7,104(sp)
    8000019c:	00613423          	sd	t1,8(sp)
    800001a0:	08c000ef          	jal	ra,8000022c <vsprintf>
    800001a4:	000087b7          	lui	a5,0x8
    800001a8:	04a7cc63          	blt	a5,a0,80000200 <printf+0xa8>
    800001ac:	00050913          	mv	s2,a0
    800001b0:	02a05a63          	blez	a0,800001e4 <printf+0x8c>
    800001b4:	fff5049b          	addiw	s1,a0,-1
    800001b8:	02049493          	slli	s1,s1,0x20
    800001bc:	0204d493          	srli	s1,s1,0x20
    800001c0:	00000797          	auipc	a5,0x0
    800001c4:	6b178793          	addi	a5,a5,1713 # 80000871 <sprint_buf+0x1>
    800001c8:	00000417          	auipc	s0,0x0
    800001cc:	6a840413          	addi	s0,s0,1704 # 80000870 <sprint_buf>
    800001d0:	00f484b3          	add	s1,s1,a5
    800001d4:	00044503          	lbu	a0,0(s0)
    800001d8:	00140413          	addi	s0,s0,1
    800001dc:	f41ff0ef          	jal	ra,8000011c <putch>
    800001e0:	fe941ae3          	bne	s0,s1,800001d4 <printf+0x7c>
    800001e4:	02813083          	ld	ra,40(sp)
    800001e8:	02013403          	ld	s0,32(sp)
    800001ec:	01813483          	ld	s1,24(sp)
    800001f0:	00090513          	mv	a0,s2
    800001f4:	01013903          	ld	s2,16(sp)
    800001f8:	07010113          	addi	sp,sp,112
    800001fc:	00008067          	ret
    80000200:	00000517          	auipc	a0,0x0
    80000204:	4c850513          	addi	a0,a0,1224 # 800006c8 <_etext+0x88>
    80000208:	f51ff0ef          	jal	ra,80000158 <printf>
    8000020c:	09000613          	li	a2,144
    80000210:	00000597          	auipc	a1,0x0
    80000214:	4d858593          	addi	a1,a1,1240 # 800006e8 <_etext+0xa8>
    80000218:	00000517          	auipc	a0,0x0
    8000021c:	51050513          	addi	a0,a0,1296 # 80000728 <_etext+0xe8>
    80000220:	f39ff0ef          	jal	ra,80000158 <printf>
    80000224:	00100513          	li	a0,1
    80000228:	f05ff0ef          	jal	ra,8000012c <halt>

000000008000022c <vsprintf>:
    8000022c:	f8010113          	addi	sp,sp,-128
    80000230:	06813823          	sd	s0,112(sp)
    80000234:	05613023          	sd	s6,64(sp)
    80000238:	06113c23          	sd	ra,120(sp)
    8000023c:	06913423          	sd	s1,104(sp)
    80000240:	07213023          	sd	s2,96(sp)
    80000244:	05313c23          	sd	s3,88(sp)
    80000248:	05413823          	sd	s4,80(sp)
    8000024c:	05513423          	sd	s5,72(sp)
    80000250:	03713c23          	sd	s7,56(sp)
    80000254:	03813823          	sd	s8,48(sp)
    80000258:	03913423          	sd	s9,40(sp)
    8000025c:	03a13023          	sd	s10,32(sp)
    80000260:	01b13c23          	sd	s11,24(sp)
    80000264:	0005c783          	lbu	a5,0(a1)
    80000268:	00050b13          	mv	s6,a0
    8000026c:	00050413          	mv	s0,a0
    80000270:	34078463          	beqz	a5,800005b8 <vsprintf+0x38c>
    80000274:	02500c13          	li	s8,37
    80000278:	06c00d93          	li	s11,108
    8000027c:	01600913          	li	s2,22
    80000280:	00000d17          	auipc	s10,0x0
    80000284:	4f0d0d13          	addi	s10,s10,1264 # 80000770 <_etext+0x130>
    80000288:	07100993          	li	s3,113
    8000028c:	00000c97          	auipc	s9,0x0
    80000290:	4bcc8c93          	addi	s9,s9,1212 # 80000748 <_etext+0x108>
    80000294:	03000a13          	li	s4,48
    80000298:	00000a97          	auipc	s5,0x0
    8000029c:	534a8a93          	addi	s5,s5,1332 # 800007cc <_etext+0x18c>
    800002a0:	07878063          	beq	a5,s8,80000300 <vsprintf+0xd4>
    800002a4:	00f40023          	sb	a5,0(s0)
    800002a8:	00058b93          	mv	s7,a1
    800002ac:	00140413          	addi	s0,s0,1
    800002b0:	001bc783          	lbu	a5,1(s7)
    800002b4:	001b8593          	addi	a1,s7,1
    800002b8:	fe0794e3          	bnez	a5,800002a0 <vsprintf+0x74>
    800002bc:	4164053b          	subw	a0,s0,s6
    800002c0:	00040023          	sb	zero,0(s0)
    800002c4:	07813083          	ld	ra,120(sp)
    800002c8:	07013403          	ld	s0,112(sp)
    800002cc:	06813483          	ld	s1,104(sp)
    800002d0:	06013903          	ld	s2,96(sp)
    800002d4:	05813983          	ld	s3,88(sp)
    800002d8:	05013a03          	ld	s4,80(sp)
    800002dc:	04813a83          	ld	s5,72(sp)
    800002e0:	04013b03          	ld	s6,64(sp)
    800002e4:	03813b83          	ld	s7,56(sp)
    800002e8:	03013c03          	ld	s8,48(sp)
    800002ec:	02813c83          	ld	s9,40(sp)
    800002f0:	02013d03          	ld	s10,32(sp)
    800002f4:	01813d83          	ld	s11,24(sp)
    800002f8:	08010113          	addi	sp,sp,128
    800002fc:	00008067          	ret
    80000300:	0015c783          	lbu	a5,1(a1)
    80000304:	00158b93          	addi	s7,a1,1
    80000308:	fff00713          	li	a4,-1
    8000030c:	03b78463          	beq	a5,s11,80000334 <vsprintf+0x108>
    80000310:	1f878863          	beq	a5,s8,80000500 <vsprintf+0x2d4>
    80000314:	f9e7879b          	addiw	a5,a5,-98
    80000318:	0ff7f793          	zext.b	a5,a5
    8000031c:	2af96263          	bltu	s2,a5,800005c0 <vsprintf+0x394>
    80000320:	00279793          	slli	a5,a5,0x2
    80000324:	01a787b3          	add	a5,a5,s10
    80000328:	0007a783          	lw	a5,0(a5)
    8000032c:	01a787b3          	add	a5,a5,s10
    80000330:	00078067          	jr	a5
    80000334:	0025c783          	lbu	a5,2(a1)
    80000338:	1fb78063          	beq	a5,s11,80000518 <vsprintf+0x2ec>
    8000033c:	00258b93          	addi	s7,a1,2
    80000340:	1d878063          	beq	a5,s8,80000500 <vsprintf+0x2d4>
    80000344:	f9e7879b          	addiw	a5,a5,-98
    80000348:	0ff7f793          	zext.b	a5,a5
    8000034c:	26f96a63          	bltu	s2,a5,800005c0 <vsprintf+0x394>
    80000350:	00279793          	slli	a5,a5,0x2
    80000354:	015787b3          	add	a5,a5,s5
    80000358:	0007a783          	lw	a5,0(a5)
    8000035c:	015787b3          	add	a5,a5,s5
    80000360:	00078067          	jr	a5
    80000364:	00063583          	ld	a1,0(a2)
    80000368:	00860493          	addi	s1,a2,8
    8000036c:	00058513          	mv	a0,a1
    80000370:	00b13423          	sd	a1,8(sp)
    80000374:	294000ef          	jal	ra,80000608 <strlen>
    80000378:	00050f9b          	sext.w	t6,a0
    8000037c:	fff50f1b          	addiw	t5,a0,-1
    80000380:	220f8863          	beqz	t6,800005b0 <vsprintf+0x384>
    80000384:	00813583          	ld	a1,8(sp)
    80000388:	00158713          	addi	a4,a1,1
    8000038c:	40e406b3          	sub	a3,s0,a4
    80000390:	0085e7b3          	or	a5,a1,s0
    80000394:	0076b693          	sltiu	a3,a3,7
    80000398:	0077f793          	andi	a5,a5,7
    8000039c:	0016c693          	xori	a3,a3,1
    800003a0:	0017b793          	seqz	a5,a5
    800003a4:	00d7f7b3          	and	a5,a5,a3
    800003a8:	000f069b          	sext.w	a3,t5
    800003ac:	1a078663          	beqz	a5,80000558 <vsprintf+0x32c>
    800003b0:	00700793          	li	a5,7
    800003b4:	1ad7f263          	bgeu	a5,a3,80000558 <vsprintf+0x32c>
    800003b8:	003fd69b          	srliw	a3,t6,0x3
    800003bc:	fff6869b          	addiw	a3,a3,-1
    800003c0:	02069793          	slli	a5,a3,0x20
    800003c4:	01d7d693          	srli	a3,a5,0x1d
    800003c8:	00858513          	addi	a0,a1,8
    800003cc:	00058793          	mv	a5,a1
    800003d0:	00040713          	mv	a4,s0
    800003d4:	00a686b3          	add	a3,a3,a0
    800003d8:	0007b503          	ld	a0,0(a5)
    800003dc:	00878793          	addi	a5,a5,8
    800003e0:	00870713          	addi	a4,a4,8
    800003e4:	fea73c23          	sd	a0,-8(a4)
    800003e8:	fed798e3          	bne	a5,a3,800003d8 <vsprintf+0x1ac>
    800003ec:	ff8ff693          	andi	a3,t6,-8
    800003f0:	02069793          	slli	a5,a3,0x20
    800003f4:	0207d793          	srli	a5,a5,0x20
    800003f8:	00f40533          	add	a0,s0,a5
    800003fc:	40df073b          	subw	a4,t5,a3
    80000400:	00f587b3          	add	a5,a1,a5
    80000404:	06df8463          	beq	t6,a3,8000046c <vsprintf+0x240>
    80000408:	0007c683          	lbu	a3,0(a5)
    8000040c:	00d50023          	sb	a3,0(a0)
    80000410:	04070e63          	beqz	a4,8000046c <vsprintf+0x240>
    80000414:	0017c683          	lbu	a3,1(a5)
    80000418:	00d500a3          	sb	a3,1(a0)
    8000041c:	00100693          	li	a3,1
    80000420:	04d70663          	beq	a4,a3,8000046c <vsprintf+0x240>
    80000424:	0027c683          	lbu	a3,2(a5)
    80000428:	00d50123          	sb	a3,2(a0)
    8000042c:	00200693          	li	a3,2
    80000430:	02d70e63          	beq	a4,a3,8000046c <vsprintf+0x240>
    80000434:	0037c683          	lbu	a3,3(a5)
    80000438:	00d501a3          	sb	a3,3(a0)
    8000043c:	00300693          	li	a3,3
    80000440:	02d70663          	beq	a4,a3,8000046c <vsprintf+0x240>
    80000444:	0047c683          	lbu	a3,4(a5)
    80000448:	00d50223          	sb	a3,4(a0)
    8000044c:	00400693          	li	a3,4
    80000450:	00d70e63          	beq	a4,a3,8000046c <vsprintf+0x240>
    80000454:	0057c683          	lbu	a3,5(a5)
    80000458:	00d502a3          	sb	a3,5(a0)
    8000045c:	00500693          	li	a3,5
    80000460:	00d70663          	beq	a4,a3,8000046c <vsprintf+0x240>
    80000464:	0067c783          	lbu	a5,6(a5)
    80000468:	00f50323          	sb	a5,6(a0)
    8000046c:	020f1f13          	slli	t5,t5,0x20
    80000470:	020f5f13          	srli	t5,t5,0x20
    80000474:	001f0f13          	addi	t5,t5,1
    80000478:	01e40433          	add	s0,s0,t5
    8000047c:	00048613          	mv	a2,s1
    80000480:	e31ff06f          	j	800002b0 <vsprintf+0x84>
    80000484:	00062783          	lw	a5,0(a2)
    80000488:	00140413          	addi	s0,s0,1
    8000048c:	00860613          	addi	a2,a2,8
    80000490:	fef40fa3          	sb	a5,-1(s0)
    80000494:	e1dff06f          	j	800002b0 <vsprintf+0x84>
    80000498:	00800693          	li	a3,8
    8000049c:	00860593          	addi	a1,a2,8
    800004a0:	07370663          	beq	a4,s3,8000050c <vsprintf+0x2e0>
    800004a4:	00066783          	lwu	a5,0(a2)
    800004a8:	00058613          	mv	a2,a1
    800004ac:	00079863          	bnez	a5,800004bc <vsprintf+0x290>
    800004b0:	01440023          	sb	s4,0(s0)
    800004b4:	00140413          	addi	s0,s0,1
    800004b8:	df9ff06f          	j	800002b0 <vsprintf+0x84>
    800004bc:	02d7f733          	remu	a4,a5,a3
    800004c0:	00140413          	addi	s0,s0,1
    800004c4:	00078593          	mv	a1,a5
    800004c8:	00ec8733          	add	a4,s9,a4
    800004cc:	00074703          	lbu	a4,0(a4)
    800004d0:	02d7d7b3          	divu	a5,a5,a3
    800004d4:	fee40fa3          	sb	a4,-1(s0)
    800004d8:	dcd5ece3          	bltu	a1,a3,800002b0 <vsprintf+0x84>
    800004dc:	00140413          	addi	s0,s0,1
    800004e0:	00078593          	mv	a1,a5
    800004e4:	02d7f733          	remu	a4,a5,a3
    800004e8:	00ec8733          	add	a4,s9,a4
    800004ec:	00074703          	lbu	a4,0(a4)
    800004f0:	02d7d7b3          	divu	a5,a5,a3
    800004f4:	fee40fa3          	sb	a4,-1(s0)
    800004f8:	fcd5f2e3          	bgeu	a1,a3,800004bc <vsprintf+0x290>
    800004fc:	db5ff06f          	j	800002b0 <vsprintf+0x84>
    80000500:	01840023          	sb	s8,0(s0)
    80000504:	00140413          	addi	s0,s0,1
    80000508:	da9ff06f          	j	800002b0 <vsprintf+0x84>
    8000050c:	00063783          	ld	a5,0(a2)
    80000510:	00058613          	mv	a2,a1
    80000514:	f99ff06f          	j	800004ac <vsprintf+0x280>
    80000518:	0035c783          	lbu	a5,3(a1)
    8000051c:	00358b93          	addi	s7,a1,3
    80000520:	07100713          	li	a4,113
    80000524:	dedff06f          	j	80000310 <vsprintf+0xe4>
    80000528:	01000693          	li	a3,16
    8000052c:	f71ff06f          	j	8000049c <vsprintf+0x270>
    80000530:	00a00693          	li	a3,10
    80000534:	f69ff06f          	j	8000049c <vsprintf+0x270>
    80000538:	00200693          	li	a3,2
    8000053c:	f61ff06f          	j	8000049c <vsprintf+0x270>
    80000540:	00200693          	li	a3,2
    80000544:	00063783          	ld	a5,0(a2)
    80000548:	00860613          	addi	a2,a2,8
    8000054c:	f61ff06f          	j	800004ac <vsprintf+0x280>
    80000550:	00a00693          	li	a3,10
    80000554:	ff1ff06f          	j	80000544 <vsprintf+0x318>
    80000558:	fff5079b          	addiw	a5,a0,-1
    8000055c:	02079793          	slli	a5,a5,0x20
    80000560:	0207d793          	srli	a5,a5,0x20
    80000564:	00178793          	addi	a5,a5,1
    80000568:	00f585b3          	add	a1,a1,a5
    8000056c:	00040793          	mv	a5,s0
    80000570:	0080006f          	j	80000578 <vsprintf+0x34c>
    80000574:	00170713          	addi	a4,a4,1
    80000578:	fff74683          	lbu	a3,-1(a4)
    8000057c:	00178793          	addi	a5,a5,1
    80000580:	fed78fa3          	sb	a3,-1(a5)
    80000584:	feb718e3          	bne	a4,a1,80000574 <vsprintf+0x348>
    80000588:	020f1f13          	slli	t5,t5,0x20
    8000058c:	020f5f13          	srli	t5,t5,0x20
    80000590:	001f0f13          	addi	t5,t5,1
    80000594:	01e40433          	add	s0,s0,t5
    80000598:	00048613          	mv	a2,s1
    8000059c:	d15ff06f          	j	800002b0 <vsprintf+0x84>
    800005a0:	01000693          	li	a3,16
    800005a4:	fa1ff06f          	j	80000544 <vsprintf+0x318>
    800005a8:	00800693          	li	a3,8
    800005ac:	f99ff06f          	j	80000544 <vsprintf+0x318>
    800005b0:	00048613          	mv	a2,s1
    800005b4:	cfdff06f          	j	800002b0 <vsprintf+0x84>
    800005b8:	00000513          	li	a0,0
    800005bc:	d05ff06f          	j	800002c0 <vsprintf+0x94>
    800005c0:	06400613          	li	a2,100
    800005c4:	00000597          	auipc	a1,0x0
    800005c8:	12458593          	addi	a1,a1,292 # 800006e8 <_etext+0xa8>
    800005cc:	00000517          	auipc	a0,0x0
    800005d0:	15c50513          	addi	a0,a0,348 # 80000728 <_etext+0xe8>
    800005d4:	b85ff0ef          	jal	ra,80000158 <printf>
    800005d8:	00100513          	li	a0,1
    800005dc:	b51ff0ef          	jal	ra,8000012c <halt>

00000000800005e0 <strlen.part.0>:
    800005e0:	ff010113          	addi	sp,sp,-16
    800005e4:	01100613          	li	a2,17
    800005e8:	00000597          	auipc	a1,0x0
    800005ec:	24058593          	addi	a1,a1,576 # 80000828 <_etext+0x1e8>
    800005f0:	00000517          	auipc	a0,0x0
    800005f4:	13850513          	addi	a0,a0,312 # 80000728 <_etext+0xe8>
    800005f8:	00113423          	sd	ra,8(sp)
    800005fc:	b5dff0ef          	jal	ra,80000158 <printf>
    80000600:	00100513          	li	a0,1
    80000604:	b29ff0ef          	jal	ra,8000012c <halt>

0000000080000608 <strlen>:
    80000608:	02050663          	beqz	a0,80000634 <strlen+0x2c>
    8000060c:	00054783          	lbu	a5,0(a0)
    80000610:	00050713          	mv	a4,a0
    80000614:	00000513          	li	a0,0
    80000618:	00078c63          	beqz	a5,80000630 <strlen+0x28>
    8000061c:	00150513          	addi	a0,a0,1
    80000620:	00a707b3          	add	a5,a4,a0
    80000624:	0007c783          	lbu	a5,0(a5)
    80000628:	fe079ae3          	bnez	a5,8000061c <strlen+0x14>
    8000062c:	00008067          	ret
    80000630:	00008067          	ret
    80000634:	ff010113          	addi	sp,sp,-16
    80000638:	00113423          	sd	ra,8(sp)
    8000063c:	fa5ff0ef          	jal	ra,800005e0 <strlen.part.0>
