
/home/cyh/ysyx-workbench/am-kernels/tests/klib-tests/build/test_strcmp-riscv64-nemu.elf:     file format elf64-littleriscv


Disassembly of section .text:

0000000080000000 <_start>:
    80000000:	00000413          	li	s0,0
    80000004:	00011117          	auipc	sp,0x11
    80000008:	ffc10113          	addi	sp,sp,-4 # 80011000 <_end>
    8000000c:	130000ef          	jal	ra,8000013c <_trm_init>

0000000080000010 <test_strcmp>:
    80000010:	fd010113          	addi	sp,sp,-48
    80000014:	00913c23          	sd	s1,24(sp)
    80000018:	00001497          	auipc	s1,0x1
    8000001c:	97848493          	addi	s1,s1,-1672 # 80000990 <test>
    80000020:	02813023          	sd	s0,32(sp)
    80000024:	01213823          	sd	s2,16(sp)
    80000028:	01313423          	sd	s3,8(sp)
    8000002c:	02113423          	sd	ra,40(sp)
    80000030:	00001917          	auipc	s2,0x1
    80000034:	99090913          	addi	s2,s2,-1648 # 800009c0 <test2>
    80000038:	00001997          	auipc	s3,0x1
    8000003c:	98898993          	addi	s3,s3,-1656 # 800009c0 <test2>
    80000040:	00048413          	mv	s0,s1
    80000044:	00093583          	ld	a1,0(s2)
    80000048:	00043503          	ld	a0,0(s0)
    8000004c:	170000ef          	jal	ra,800001bc <strcmp>
    80000050:	08051263          	bnez	a0,800000d4 <test_strcmp+0xc4>
    80000054:	00840413          	addi	s0,s0,8
    80000058:	00890913          	addi	s2,s2,8
    8000005c:	ff3414e3          	bne	s0,s3,80000044 <test_strcmp+0x34>
    80000060:	00001917          	auipc	s2,0x1
    80000064:	99090913          	addi	s2,s2,-1648 # 800009f0 <test3>
    80000068:	00001417          	auipc	s0,0x1
    8000006c:	92840413          	addi	s0,s0,-1752 # 80000990 <test>
    80000070:	00093583          	ld	a1,0(s2)
    80000074:	00043503          	ld	a0,0(s0)
    80000078:	144000ef          	jal	ra,800001bc <strcmp>
    8000007c:	08055063          	bgez	a0,800000fc <test_strcmp+0xec>
    80000080:	00840413          	addi	s0,s0,8
    80000084:	00890913          	addi	s2,s2,8
    80000088:	ff3414e3          	bne	s0,s3,80000070 <test_strcmp+0x60>
    8000008c:	00001417          	auipc	s0,0x1
    80000090:	99440413          	addi	s0,s0,-1644 # 80000a20 <test4>
    80000094:	00001917          	auipc	s2,0x1
    80000098:	92490913          	addi	s2,s2,-1756 # 800009b8 <test+0x28>
    8000009c:	00043583          	ld	a1,0(s0)
    800000a0:	0004b503          	ld	a0,0(s1)
    800000a4:	118000ef          	jal	ra,800001bc <strcmp>
    800000a8:	04a05663          	blez	a0,800000f4 <test_strcmp+0xe4>
    800000ac:	00848493          	addi	s1,s1,8
    800000b0:	00840413          	addi	s0,s0,8
    800000b4:	ff2494e3          	bne	s1,s2,8000009c <test_strcmp+0x8c>
    800000b8:	02813083          	ld	ra,40(sp)
    800000bc:	02013403          	ld	s0,32(sp)
    800000c0:	01813483          	ld	s1,24(sp)
    800000c4:	01013903          	ld	s2,16(sp)
    800000c8:	00813983          	ld	s3,8(sp)
    800000cc:	03010113          	addi	sp,sp,48
    800000d0:	00008067          	ret
    800000d4:	00900613          	li	a2,9
    800000d8:	00000597          	auipc	a1,0x0
    800000dc:	5f058593          	addi	a1,a1,1520 # 800006c8 <_etext+0x4>
    800000e0:	00000517          	auipc	a0,0x0
    800000e4:	63850513          	addi	a0,a0,1592 # 80000718 <_etext+0x54>
    800000e8:	0fc000ef          	jal	ra,800001e4 <printf>
    800000ec:	00100513          	li	a0,1
    800000f0:	040000ef          	jal	ra,80000130 <halt>
    800000f4:	00f00613          	li	a2,15
    800000f8:	fe1ff06f          	j	800000d8 <test_strcmp+0xc8>
    800000fc:	00c00613          	li	a2,12
    80000100:	fd9ff06f          	j	800000d8 <test_strcmp+0xc8>

0000000080000104 <main>:
    80000104:	ff010113          	addi	sp,sp,-16
    80000108:	00113423          	sd	ra,8(sp)
    8000010c:	f05ff0ef          	jal	ra,80000010 <test_strcmp>
    80000110:	00813083          	ld	ra,8(sp)
    80000114:	00000513          	li	a0,0
    80000118:	01010113          	addi	sp,sp,16
    8000011c:	00008067          	ret

0000000080000120 <putch>:
    80000120:	00500793          	li	a5,5
    80000124:	01d79793          	slli	a5,a5,0x1d
    80000128:	3ea78c23          	sb	a0,1016(a5)
    8000012c:	00008067          	ret

0000000080000130 <halt>:
    80000130:	00050513          	mv	a0,a0
    80000134:	00100073          	ebreak
    80000138:	0000006f          	j	80000138 <halt+0x8>

000000008000013c <_trm_init>:
    8000013c:	ff010113          	addi	sp,sp,-16
    80000140:	00001517          	auipc	a0,0x1
    80000144:	84850513          	addi	a0,a0,-1976 # 80000988 <mainargs>
    80000148:	00113423          	sd	ra,8(sp)
    8000014c:	fb9ff0ef          	jal	ra,80000104 <main>
    80000150:	00050513          	mv	a0,a0
    80000154:	00100073          	ebreak
    80000158:	0000006f          	j	80000158 <_trm_init+0x1c>

000000008000015c <strlen.part.0>:
    8000015c:	ff010113          	addi	sp,sp,-16
    80000160:	01100613          	li	a2,17
    80000164:	00000597          	auipc	a1,0x0
    80000168:	6a458593          	addi	a1,a1,1700 # 80000808 <_etext+0x144>
    8000016c:	00000517          	auipc	a0,0x0
    80000170:	5ac50513          	addi	a0,a0,1452 # 80000718 <_etext+0x54>
    80000174:	00113423          	sd	ra,8(sp)
    80000178:	06c000ef          	jal	ra,800001e4 <printf>
    8000017c:	00100513          	li	a0,1
    80000180:	fb1ff0ef          	jal	ra,80000130 <halt>

0000000080000184 <strlen>:
    80000184:	02050663          	beqz	a0,800001b0 <strlen+0x2c>
    80000188:	00054783          	lbu	a5,0(a0)
    8000018c:	00050713          	mv	a4,a0
    80000190:	00000513          	li	a0,0
    80000194:	00078c63          	beqz	a5,800001ac <strlen+0x28>
    80000198:	00150513          	addi	a0,a0,1
    8000019c:	00a707b3          	add	a5,a4,a0
    800001a0:	0007c783          	lbu	a5,0(a5)
    800001a4:	fe079ae3          	bnez	a5,80000198 <strlen+0x14>
    800001a8:	00008067          	ret
    800001ac:	00008067          	ret
    800001b0:	ff010113          	addi	sp,sp,-16
    800001b4:	00113423          	sd	ra,8(sp)
    800001b8:	fa5ff0ef          	jal	ra,8000015c <strlen.part.0>

00000000800001bc <strcmp>:
    800001bc:	00054783          	lbu	a5,0(a0)
    800001c0:	00158593          	addi	a1,a1,1
    800001c4:	00150513          	addi	a0,a0,1
    800001c8:	fff5c703          	lbu	a4,-1(a1)
    800001cc:	00078863          	beqz	a5,800001dc <strcmp+0x20>
    800001d0:	fee786e3          	beq	a5,a4,800001bc <strcmp>
    800001d4:	40e7853b          	subw	a0,a5,a4
    800001d8:	00008067          	ret
    800001dc:	40e0053b          	negw	a0,a4
    800001e0:	00008067          	ret

00000000800001e4 <printf>:
    800001e4:	f9010113          	addi	sp,sp,-112
    800001e8:	03810313          	addi	t1,sp,56
    800001ec:	02b13c23          	sd	a1,56(sp)
    800001f0:	04c13023          	sd	a2,64(sp)
    800001f4:	00050593          	mv	a1,a0
    800001f8:	00030613          	mv	a2,t1
    800001fc:	00001517          	auipc	a0,0x1
    80000200:	84c50513          	addi	a0,a0,-1972 # 80000a48 <sprint_buf>
    80000204:	04f13c23          	sd	a5,88(sp)
    80000208:	02113423          	sd	ra,40(sp)
    8000020c:	02813023          	sd	s0,32(sp)
    80000210:	00913c23          	sd	s1,24(sp)
    80000214:	01213823          	sd	s2,16(sp)
    80000218:	04d13423          	sd	a3,72(sp)
    8000021c:	04e13823          	sd	a4,80(sp)
    80000220:	07013023          	sd	a6,96(sp)
    80000224:	07113423          	sd	a7,104(sp)
    80000228:	00613423          	sd	t1,8(sp)
    8000022c:	08c000ef          	jal	ra,800002b8 <vsprintf>
    80000230:	000087b7          	lui	a5,0x8
    80000234:	04a7cc63          	blt	a5,a0,8000028c <printf+0xa8>
    80000238:	00050913          	mv	s2,a0
    8000023c:	02a05a63          	blez	a0,80000270 <printf+0x8c>
    80000240:	fff5049b          	addiw	s1,a0,-1
    80000244:	02049493          	slli	s1,s1,0x20
    80000248:	0204d493          	srli	s1,s1,0x20
    8000024c:	00000797          	auipc	a5,0x0
    80000250:	7fd78793          	addi	a5,a5,2045 # 80000a49 <sprint_buf+0x1>
    80000254:	00000417          	auipc	s0,0x0
    80000258:	7f440413          	addi	s0,s0,2036 # 80000a48 <sprint_buf>
    8000025c:	00f484b3          	add	s1,s1,a5
    80000260:	00044503          	lbu	a0,0(s0)
    80000264:	00140413          	addi	s0,s0,1
    80000268:	eb9ff0ef          	jal	ra,80000120 <putch>
    8000026c:	fe941ae3          	bne	s0,s1,80000260 <printf+0x7c>
    80000270:	02813083          	ld	ra,40(sp)
    80000274:	02013403          	ld	s0,32(sp)
    80000278:	01813483          	ld	s1,24(sp)
    8000027c:	00090513          	mv	a0,s2
    80000280:	01013903          	ld	s2,16(sp)
    80000284:	07010113          	addi	sp,sp,112
    80000288:	00008067          	ret
    8000028c:	00000517          	auipc	a0,0x0
    80000290:	5bc50513          	addi	a0,a0,1468 # 80000848 <_etext+0x184>
    80000294:	f51ff0ef          	jal	ra,800001e4 <printf>
    80000298:	09600613          	li	a2,150
    8000029c:	00000597          	auipc	a1,0x0
    800002a0:	5cc58593          	addi	a1,a1,1484 # 80000868 <_etext+0x1a4>
    800002a4:	00000517          	auipc	a0,0x0
    800002a8:	47450513          	addi	a0,a0,1140 # 80000718 <_etext+0x54>
    800002ac:	f39ff0ef          	jal	ra,800001e4 <printf>
    800002b0:	00100513          	li	a0,1
    800002b4:	e7dff0ef          	jal	ra,80000130 <halt>

00000000800002b8 <vsprintf>:
    800002b8:	f3010113          	addi	sp,sp,-208
    800002bc:	07b13423          	sd	s11,104(sp)
    800002c0:	0c113423          	sd	ra,200(sp)
    800002c4:	0c813023          	sd	s0,192(sp)
    800002c8:	0a913c23          	sd	s1,184(sp)
    800002cc:	0b213823          	sd	s2,176(sp)
    800002d0:	0b313423          	sd	s3,168(sp)
    800002d4:	0b413023          	sd	s4,160(sp)
    800002d8:	09513c23          	sd	s5,152(sp)
    800002dc:	09613823          	sd	s6,144(sp)
    800002e0:	09713423          	sd	s7,136(sp)
    800002e4:	09813023          	sd	s8,128(sp)
    800002e8:	07913c23          	sd	s9,120(sp)
    800002ec:	07a13823          	sd	s10,112(sp)
    800002f0:	0005c783          	lbu	a5,0(a1)
    800002f4:	00050d93          	mv	s11,a0
    800002f8:	3a078c63          	beqz	a5,800006b0 <vsprintf+0x3f8>
    800002fc:	01810c13          	addi	s8,sp,24
    80000300:	00100913          	li	s2,1
    80000304:	00060a93          	mv	s5,a2
    80000308:	00050413          	mv	s0,a0
    8000030c:	02500b13          	li	s6,37
    80000310:	06c00813          	li	a6,108
    80000314:	01600893          	li	a7,22
    80000318:	00000697          	auipc	a3,0x0
    8000031c:	5b868693          	addi	a3,a3,1464 # 800008d0 <_etext+0x20c>
    80000320:	07100b93          	li	s7,113
    80000324:	00000997          	auipc	s3,0x0
    80000328:	58498993          	addi	s3,s3,1412 # 800008a8 <_etext+0x1e4>
    8000032c:	05910a13          	addi	s4,sp,89
    80000330:	4189093b          	subw	s2,s2,s8
    80000334:	03000c93          	li	s9,48
    80000338:	00000d17          	auipc	s10,0x0
    8000033c:	5f4d0d13          	addi	s10,s10,1524 # 8000092c <_etext+0x268>
    80000340:	07678063          	beq	a5,s6,800003a0 <vsprintf+0xe8>
    80000344:	00f40023          	sb	a5,0(s0)
    80000348:	00058493          	mv	s1,a1
    8000034c:	00140413          	addi	s0,s0,1
    80000350:	0014c783          	lbu	a5,1(s1)
    80000354:	00148593          	addi	a1,s1,1
    80000358:	fe0794e3          	bnez	a5,80000340 <vsprintf+0x88>
    8000035c:	41b4053b          	subw	a0,s0,s11
    80000360:	00040023          	sb	zero,0(s0)
    80000364:	0c813083          	ld	ra,200(sp)
    80000368:	0c013403          	ld	s0,192(sp)
    8000036c:	0b813483          	ld	s1,184(sp)
    80000370:	0b013903          	ld	s2,176(sp)
    80000374:	0a813983          	ld	s3,168(sp)
    80000378:	0a013a03          	ld	s4,160(sp)
    8000037c:	09813a83          	ld	s5,152(sp)
    80000380:	09013b03          	ld	s6,144(sp)
    80000384:	08813b83          	ld	s7,136(sp)
    80000388:	08013c03          	ld	s8,128(sp)
    8000038c:	07813c83          	ld	s9,120(sp)
    80000390:	07013d03          	ld	s10,112(sp)
    80000394:	06813d83          	ld	s11,104(sp)
    80000398:	0d010113          	addi	sp,sp,208
    8000039c:	00008067          	ret
    800003a0:	0015c783          	lbu	a5,1(a1)
    800003a4:	00158493          	addi	s1,a1,1
    800003a8:	fff00713          	li	a4,-1
    800003ac:	03078463          	beq	a5,a6,800003d4 <vsprintf+0x11c>
    800003b0:	23678a63          	beq	a5,s6,800005e4 <vsprintf+0x32c>
    800003b4:	f9e7879b          	addiw	a5,a5,-98
    800003b8:	0ff7f793          	zext.b	a5,a5
    800003bc:	30f8e063          	bltu	a7,a5,800006bc <vsprintf+0x404>
    800003c0:	00279793          	slli	a5,a5,0x2
    800003c4:	00d787b3          	add	a5,a5,a3
    800003c8:	0007a783          	lw	a5,0(a5)
    800003cc:	00d787b3          	add	a5,a5,a3
    800003d0:	00078067          	jr	a5
    800003d4:	0025c783          	lbu	a5,2(a1)
    800003d8:	23078263          	beq	a5,a6,800005fc <vsprintf+0x344>
    800003dc:	00258493          	addi	s1,a1,2
    800003e0:	21678263          	beq	a5,s6,800005e4 <vsprintf+0x32c>
    800003e4:	f9e7879b          	addiw	a5,a5,-98
    800003e8:	0ff7f793          	zext.b	a5,a5
    800003ec:	2cf8e863          	bltu	a7,a5,800006bc <vsprintf+0x404>
    800003f0:	00279793          	slli	a5,a5,0x2
    800003f4:	01a787b3          	add	a5,a5,s10
    800003f8:	0007a783          	lw	a5,0(a5)
    800003fc:	01a787b3          	add	a5,a5,s10
    80000400:	00078067          	jr	a5
    80000404:	000ab583          	ld	a1,0(s5)
    80000408:	008a8a93          	addi	s5,s5,8
    8000040c:	00058513          	mv	a0,a1
    80000410:	00b13423          	sd	a1,8(sp)
    80000414:	d71ff0ef          	jal	ra,80000184 <strlen>
    80000418:	00050613          	mv	a2,a0
    8000041c:	0005051b          	sext.w	a0,a0
    80000420:	fff60e9b          	addiw	t4,a2,-1
    80000424:	06c00813          	li	a6,108
    80000428:	01600893          	li	a7,22
    8000042c:	00000697          	auipc	a3,0x0
    80000430:	4a468693          	addi	a3,a3,1188 # 800008d0 <_etext+0x20c>
    80000434:	f0050ee3          	beqz	a0,80000350 <vsprintf+0x98>
    80000438:	00813583          	ld	a1,8(sp)
    8000043c:	00158713          	addi	a4,a1,1
    80000440:	40e40333          	sub	t1,s0,a4
    80000444:	0085e7b3          	or	a5,a1,s0
    80000448:	00733313          	sltiu	t1,t1,7
    8000044c:	0077f793          	andi	a5,a5,7
    80000450:	00134313          	xori	t1,t1,1
    80000454:	0017b793          	seqz	a5,a5
    80000458:	0067f7b3          	and	a5,a5,t1
    8000045c:	000e831b          	sext.w	t1,t4
    80000460:	20078663          	beqz	a5,8000066c <vsprintf+0x3b4>
    80000464:	00700793          	li	a5,7
    80000468:	2067f263          	bgeu	a5,t1,8000066c <vsprintf+0x3b4>
    8000046c:	0035579b          	srliw	a5,a0,0x3
    80000470:	fff7879b          	addiw	a5,a5,-1
    80000474:	02079713          	slli	a4,a5,0x20
    80000478:	01d75613          	srli	a2,a4,0x1d
    8000047c:	00858313          	addi	t1,a1,8
    80000480:	00058793          	mv	a5,a1
    80000484:	00040713          	mv	a4,s0
    80000488:	00660333          	add	t1,a2,t1
    8000048c:	0007b603          	ld	a2,0(a5)
    80000490:	00878793          	addi	a5,a5,8
    80000494:	00870713          	addi	a4,a4,8
    80000498:	fec73c23          	sd	a2,-8(a4)
    8000049c:	fe6798e3          	bne	a5,t1,8000048c <vsprintf+0x1d4>
    800004a0:	ff857613          	andi	a2,a0,-8
    800004a4:	02061793          	slli	a5,a2,0x20
    800004a8:	0207d793          	srli	a5,a5,0x20
    800004ac:	00f40733          	add	a4,s0,a5
    800004b0:	00f587b3          	add	a5,a1,a5
    800004b4:	40ce85bb          	subw	a1,t4,a2
    800004b8:	06c50463          	beq	a0,a2,80000520 <vsprintf+0x268>
    800004bc:	0007c603          	lbu	a2,0(a5)
    800004c0:	00c70023          	sb	a2,0(a4)
    800004c4:	04058e63          	beqz	a1,80000520 <vsprintf+0x268>
    800004c8:	0017c603          	lbu	a2,1(a5)
    800004cc:	00c700a3          	sb	a2,1(a4)
    800004d0:	00100613          	li	a2,1
    800004d4:	04c58663          	beq	a1,a2,80000520 <vsprintf+0x268>
    800004d8:	0027c603          	lbu	a2,2(a5)
    800004dc:	00c70123          	sb	a2,2(a4)
    800004e0:	00200613          	li	a2,2
    800004e4:	02c58e63          	beq	a1,a2,80000520 <vsprintf+0x268>
    800004e8:	0037c603          	lbu	a2,3(a5)
    800004ec:	00c701a3          	sb	a2,3(a4)
    800004f0:	00300613          	li	a2,3
    800004f4:	02c58663          	beq	a1,a2,80000520 <vsprintf+0x268>
    800004f8:	0047c603          	lbu	a2,4(a5)
    800004fc:	00c70223          	sb	a2,4(a4)
    80000500:	00400613          	li	a2,4
    80000504:	00c58e63          	beq	a1,a2,80000520 <vsprintf+0x268>
    80000508:	0057c603          	lbu	a2,5(a5)
    8000050c:	00c702a3          	sb	a2,5(a4)
    80000510:	00500613          	li	a2,5
    80000514:	00c58663          	beq	a1,a2,80000520 <vsprintf+0x268>
    80000518:	0067c783          	lbu	a5,6(a5)
    8000051c:	00f70323          	sb	a5,6(a4)
    80000520:	020e9e93          	slli	t4,t4,0x20
    80000524:	020ede93          	srli	t4,t4,0x20
    80000528:	001e8e93          	addi	t4,t4,1
    8000052c:	01d40433          	add	s0,s0,t4
    80000530:	e21ff06f          	j	80000350 <vsprintf+0x98>
    80000534:	000aa783          	lw	a5,0(s5)
    80000538:	00140413          	addi	s0,s0,1
    8000053c:	008a8a93          	addi	s5,s5,8
    80000540:	fef40fa3          	sb	a5,-1(s0)
    80000544:	e0dff06f          	j	80000350 <vsprintf+0x98>
    80000548:	00800613          	li	a2,8
    8000054c:	008a8793          	addi	a5,s5,8
    80000550:	0b770063          	beq	a4,s7,800005f0 <vsprintf+0x338>
    80000554:	000ae703          	lwu	a4,0(s5)
    80000558:	00078a93          	mv	s5,a5
    8000055c:	00071863          	bnez	a4,8000056c <vsprintf+0x2b4>
    80000560:	01940023          	sb	s9,0(s0)
    80000564:	00140413          	addi	s0,s0,1
    80000568:	de9ff06f          	j	80000350 <vsprintf+0x98>
    8000056c:	02c775b3          	remu	a1,a4,a2
    80000570:	000c0793          	mv	a5,s8
    80000574:	00b985b3          	add	a1,s3,a1
    80000578:	0005c583          	lbu	a1,0(a1)
    8000057c:	02c75733          	divu	a4,a4,a2
    80000580:	00b10c23          	sb	a1,24(sp)
    80000584:	0200006f          	j	800005a4 <vsprintf+0x2ec>
    80000588:	02c775b3          	remu	a1,a4,a2
    8000058c:	00178793          	addi	a5,a5,1
    80000590:	00b985b3          	add	a1,s3,a1
    80000594:	0005c583          	lbu	a1,0(a1)
    80000598:	02c75733          	divu	a4,a4,a2
    8000059c:	00b78023          	sb	a1,0(a5)
    800005a0:	08fa0a63          	beq	s4,a5,80000634 <vsprintf+0x37c>
    800005a4:	00f905bb          	addw	a1,s2,a5
    800005a8:	fe0710e3          	bnez	a4,80000588 <vsprintf+0x2d0>
    800005ac:	fff5851b          	addiw	a0,a1,-1
    800005b0:	02051513          	slli	a0,a0,0x20
    800005b4:	02055513          	srli	a0,a0,0x20
    800005b8:	00150513          	addi	a0,a0,1
    800005bc:	00bc0733          	add	a4,s8,a1
    800005c0:	00a40533          	add	a0,s0,a0
    800005c4:	00040793          	mv	a5,s0
    800005c8:	fff74603          	lbu	a2,-1(a4)
    800005cc:	00178793          	addi	a5,a5,1
    800005d0:	fff70713          	addi	a4,a4,-1
    800005d4:	fec78fa3          	sb	a2,-1(a5)
    800005d8:	fea798e3          	bne	a5,a0,800005c8 <vsprintf+0x310>
    800005dc:	00b40433          	add	s0,s0,a1
    800005e0:	d71ff06f          	j	80000350 <vsprintf+0x98>
    800005e4:	01640023          	sb	s6,0(s0)
    800005e8:	00140413          	addi	s0,s0,1
    800005ec:	d65ff06f          	j	80000350 <vsprintf+0x98>
    800005f0:	000ab703          	ld	a4,0(s5)
    800005f4:	00078a93          	mv	s5,a5
    800005f8:	f65ff06f          	j	8000055c <vsprintf+0x2a4>
    800005fc:	0035c783          	lbu	a5,3(a1)
    80000600:	00358493          	addi	s1,a1,3
    80000604:	07100713          	li	a4,113
    80000608:	da9ff06f          	j	800003b0 <vsprintf+0xf8>
    8000060c:	01000613          	li	a2,16
    80000610:	f3dff06f          	j	8000054c <vsprintf+0x294>
    80000614:	00a00613          	li	a2,10
    80000618:	f35ff06f          	j	8000054c <vsprintf+0x294>
    8000061c:	00200613          	li	a2,2
    80000620:	000ab703          	ld	a4,0(s5)
    80000624:	008a8a93          	addi	s5,s5,8
    80000628:	f35ff06f          	j	8000055c <vsprintf+0x2a4>
    8000062c:	00a00613          	li	a2,10
    80000630:	ff1ff06f          	j	80000620 <vsprintf+0x368>
    80000634:	02200613          	li	a2,34
    80000638:	00000597          	auipc	a1,0x0
    8000063c:	23058593          	addi	a1,a1,560 # 80000868 <_etext+0x1a4>
    80000640:	00000517          	auipc	a0,0x0
    80000644:	0d850513          	addi	a0,a0,216 # 80000718 <_etext+0x54>
    80000648:	b9dff0ef          	jal	ra,800001e4 <printf>
    8000064c:	00100513          	li	a0,1
    80000650:	ae1ff0ef          	jal	ra,80000130 <halt>
    80000654:	00200613          	li	a2,2
    80000658:	ef5ff06f          	j	8000054c <vsprintf+0x294>
    8000065c:	01000613          	li	a2,16
    80000660:	fc1ff06f          	j	80000620 <vsprintf+0x368>
    80000664:	00800613          	li	a2,8
    80000668:	fb9ff06f          	j	80000620 <vsprintf+0x368>
    8000066c:	fff6079b          	addiw	a5,a2,-1
    80000670:	02079793          	slli	a5,a5,0x20
    80000674:	0207d793          	srli	a5,a5,0x20
    80000678:	00178793          	addi	a5,a5,1
    8000067c:	00f585b3          	add	a1,a1,a5
    80000680:	00040793          	mv	a5,s0
    80000684:	0080006f          	j	8000068c <vsprintf+0x3d4>
    80000688:	00170713          	addi	a4,a4,1
    8000068c:	fff74603          	lbu	a2,-1(a4)
    80000690:	00178793          	addi	a5,a5,1
    80000694:	fec78fa3          	sb	a2,-1(a5)
    80000698:	fee598e3          	bne	a1,a4,80000688 <vsprintf+0x3d0>
    8000069c:	020e9e93          	slli	t4,t4,0x20
    800006a0:	020ede93          	srli	t4,t4,0x20
    800006a4:	001e8e93          	addi	t4,t4,1
    800006a8:	01d40433          	add	s0,s0,t4
    800006ac:	ca5ff06f          	j	80000350 <vsprintf+0x98>
    800006b0:	00050413          	mv	s0,a0
    800006b4:	00000513          	li	a0,0
    800006b8:	ca9ff06f          	j	80000360 <vsprintf+0xa8>
    800006bc:	06a00613          	li	a2,106
    800006c0:	f79ff06f          	j	80000638 <vsprintf+0x380>
