
/home/cyh/ysyx-workbench/am-kernels/kernels/slider/build/slider-riscv64-nemu.elf:     file format elf64-littleriscv


Disassembly of section .text:

0000000080000000 <_start>:
    80000000:	00000413          	li	s0,0
    80000004:	000f3117          	auipc	sp,0xf3
    80000008:	ffc10113          	addi	sp,sp,-4 # 800f3000 <_end>
    8000000c:	438000ef          	jal	ra,80000444 <_trm_init>

0000000080000010 <display_image>:
    80000010:	000757b7          	lui	a5,0x75
    80000014:	30078793          	addi	a5,a5,768 # 75300 <_entry_offset+0x75300>
    80000018:	02f507b3          	mul	a5,a0,a5
    8000001c:	04b00713          	li	a4,75
    80000020:	02271713          	slli	a4,a4,0x22
    80000024:	fd010113          	addi	sp,sp,-48
    80000028:	19070713          	addi	a4,a4,400
    8000002c:	00e13823          	sd	a4,16(sp)
    80000030:	00000717          	auipc	a4,0x0
    80000034:	4e070713          	addi	a4,a4,1248 # 80000510 <image>
    80000038:	00010593          	mv	a1,sp
    8000003c:	00b00513          	li	a0,11
    80000040:	02113423          	sd	ra,40(sp)
    80000044:	00e787b3          	add	a5,a5,a4
    80000048:	00f13423          	sd	a5,8(sp)
    8000004c:	00100793          	li	a5,1
    80000050:	00013023          	sd	zero,0(sp)
    80000054:	00f10c23          	sb	a5,24(sp)
    80000058:	1f8000ef          	jal	ra,80000250 <ioe_write>
    8000005c:	02813083          	ld	ra,40(sp)
    80000060:	03010113          	addi	sp,sp,48
    80000064:	00008067          	ret

0000000080000068 <main>:
    80000068:	f9010113          	addi	sp,sp,-112
    8000006c:	06113423          	sd	ra,104(sp)
    80000070:	06813023          	sd	s0,96(sp)
    80000074:	04913c23          	sd	s1,88(sp)
    80000078:	05213823          	sd	s2,80(sp)
    8000007c:	05313423          	sd	s3,72(sp)
    80000080:	05413023          	sd	s4,64(sp)
    80000084:	03513c23          	sd	s5,56(sp)
    80000088:	03613823          	sd	s6,48(sp)
    8000008c:	03713423          	sd	s7,40(sp)
    80000090:	03813023          	sd	s8,32(sp)
    80000094:	144000ef          	jal	ra,800001d8 <ioe_init>
    80000098:	00000513          	li	a0,0
    8000009c:	00000b17          	auipc	s6,0x0
    800000a0:	474b0b13          	addi	s6,s6,1140 # 80000510 <image>
    800000a4:	000eb997          	auipc	s3,0xeb
    800000a8:	a7498993          	addi	s3,s3,-1420 # 800eab18 <lut>
    800000ac:	f65ff0ef          	jal	ra,80000010 <display_image>
    800000b0:	416989b3          	sub	s3,s3,s6
    800000b4:	4089d993          	srai	s3,s3,0x8
    800000b8:	00000797          	auipc	a5,0x0
    800000bc:	4487b783          	ld	a5,1096(a5) # 80000500 <_etext+0x9c>
    800000c0:	02f989b3          	mul	s3,s3,a5
    800000c4:	04b00a13          	li	s4,75
    800000c8:	000014b7          	lui	s1,0x1
    800000cc:	00075ab7          	lui	s5,0x75
    800000d0:	022a1a13          	slli	s4,s4,0x22
    800000d4:	00000413          	li	s0,0
    800000d8:	00000c13          	li	s8,0
    800000dc:	3e800913          	li	s2,1000
    800000e0:	38848493          	addi	s1,s1,904 # 1388 <_entry_offset+0x1388>
    800000e4:	300a8a93          	addi	s5,s5,768 # 75300 <_entry_offset+0x75300>
    800000e8:	190a0a13          	addi	s4,s4,400
    800000ec:	00100b93          	li	s7,1
    800000f0:	00010593          	mv	a1,sp
    800000f4:	00600513          	li	a0,6
    800000f8:	13c000ef          	jal	ra,80000234 <ioe_read>
    800000fc:	00013783          	ld	a5,0(sp)
    80000100:	0327d7b3          	divu	a5,a5,s2
    80000104:	40878733          	sub	a4,a5,s0
    80000108:	fee4f4e3          	bgeu	s1,a4,800000f0 <main+0x88>
    8000010c:	001c071b          	addiw	a4,s8,1
    80000110:	03376733          	rem	a4,a4,s3
    80000114:	00078413          	mv	s0,a5
    80000118:	00010593          	mv	a1,sp
    8000011c:	00b00513          	li	a0,11
    80000120:	00013023          	sd	zero,0(sp)
    80000124:	01413823          	sd	s4,16(sp)
    80000128:	01710c23          	sb	s7,24(sp)
    8000012c:	035707b3          	mul	a5,a4,s5
    80000130:	00070c1b          	sext.w	s8,a4
    80000134:	00fb07b3          	add	a5,s6,a5
    80000138:	00f13423          	sd	a5,8(sp)
    8000013c:	114000ef          	jal	ra,80000250 <ioe_write>
    80000140:	fb1ff06f          	j	800000f0 <main+0x88>

0000000080000144 <__am_timer_config>:
    80000144:	00100793          	li	a5,1
    80000148:	00f50023          	sb	a5,0(a0)
    8000014c:	00f500a3          	sb	a5,1(a0)
    80000150:	00008067          	ret

0000000080000154 <__am_input_config>:
    80000154:	00100793          	li	a5,1
    80000158:	00f50023          	sb	a5,0(a0)
    8000015c:	00008067          	ret

0000000080000160 <__am_uart_config>:
    80000160:	00050023          	sb	zero,0(a0)
    80000164:	00008067          	ret

0000000080000168 <__am_net_config>:
    80000168:	00050023          	sb	zero,0(a0)
    8000016c:	00008067          	ret

0000000080000170 <fail>:
    80000170:	ff010113          	addi	sp,sp,-16
    80000174:	00813023          	sd	s0,0(sp)
    80000178:	00113423          	sd	ra,8(sp)
    8000017c:	00000417          	auipc	s0,0x0
    80000180:	2ec40413          	addi	s0,s0,748 # 80000468 <_etext+0x4>
    80000184:	04100513          	li	a0,65
    80000188:	00140413          	addi	s0,s0,1
    8000018c:	29c000ef          	jal	ra,80000428 <putch>
    80000190:	00044503          	lbu	a0,0(s0)
    80000194:	fe051ae3          	bnez	a0,80000188 <fail+0x18>
    80000198:	00000417          	auipc	s0,0x0
    8000019c:	2e040413          	addi	s0,s0,736 # 80000478 <_etext+0x14>
    800001a0:	06100513          	li	a0,97
    800001a4:	00140413          	addi	s0,s0,1
    800001a8:	280000ef          	jal	ra,80000428 <putch>
    800001ac:	00044503          	lbu	a0,0(s0)
    800001b0:	fe051ae3          	bnez	a0,800001a4 <fail+0x34>
    800001b4:	00000417          	auipc	s0,0x0
    800001b8:	2e440413          	addi	s0,s0,740 # 80000498 <_etext+0x34>
    800001bc:	02000513          	li	a0,32
    800001c0:	00140413          	addi	s0,s0,1
    800001c4:	264000ef          	jal	ra,80000428 <putch>
    800001c8:	00044503          	lbu	a0,0(s0)
    800001cc:	fe051ae3          	bnez	a0,800001c0 <fail+0x50>
    800001d0:	00100513          	li	a0,1
    800001d4:	264000ef          	jal	ra,80000438 <halt>

00000000800001d8 <ioe_init>:
    800001d8:	ff010113          	addi	sp,sp,-16
    800001dc:	00113423          	sd	ra,8(sp)
    800001e0:	000eb797          	auipc	a5,0xeb
    800001e4:	93878793          	addi	a5,a5,-1736 # 800eab18 <lut>
    800001e8:	000eb697          	auipc	a3,0xeb
    800001ec:	d3068693          	addi	a3,a3,-720 # 800eaf18 <fb>
    800001f0:	00000617          	auipc	a2,0x0
    800001f4:	f8060613          	addi	a2,a2,-128 # 80000170 <fail>
    800001f8:	00c0006f          	j	80000204 <ioe_init+0x2c>
    800001fc:	00878793          	addi	a5,a5,8
    80000200:	00d78c63          	beq	a5,a3,80000218 <ioe_init+0x40>
    80000204:	0007b703          	ld	a4,0(a5)
    80000208:	fe071ae3          	bnez	a4,800001fc <ioe_init+0x24>
    8000020c:	00c7b023          	sd	a2,0(a5)
    80000210:	00878793          	addi	a5,a5,8
    80000214:	fed798e3          	bne	a5,a3,80000204 <ioe_init+0x2c>
    80000218:	100000ef          	jal	ra,80000318 <__am_gpu_init>
    8000021c:	050000ef          	jal	ra,8000026c <__am_timer_init>
    80000220:	1dc000ef          	jal	ra,800003fc <__am_audio_init>
    80000224:	00813083          	ld	ra,8(sp)
    80000228:	00100513          	li	a0,1
    8000022c:	01010113          	addi	sp,sp,16
    80000230:	00008067          	ret

0000000080000234 <ioe_read>:
    80000234:	00351793          	slli	a5,a0,0x3
    80000238:	000eb517          	auipc	a0,0xeb
    8000023c:	8e050513          	addi	a0,a0,-1824 # 800eab18 <lut>
    80000240:	00f50533          	add	a0,a0,a5
    80000244:	00053783          	ld	a5,0(a0)
    80000248:	00058513          	mv	a0,a1
    8000024c:	00078067          	jr	a5

0000000080000250 <ioe_write>:
    80000250:	00351793          	slli	a5,a0,0x3
    80000254:	000eb517          	auipc	a0,0xeb
    80000258:	8c450513          	addi	a0,a0,-1852 # 800eab18 <lut>
    8000025c:	00f50533          	add	a0,a0,a5
    80000260:	00053783          	ld	a5,0(a0)
    80000264:	00058513          	mv	a0,a1
    80000268:	00078067          	jr	a5

000000008000026c <__am_timer_init>:
    8000026c:	00500713          	li	a4,5
    80000270:	01d71713          	slli	a4,a4,0x1d
    80000274:	04c72783          	lw	a5,76(a4)
    80000278:	04872703          	lw	a4,72(a4)
    8000027c:	02079793          	slli	a5,a5,0x20
    80000280:	02071713          	slli	a4,a4,0x20
    80000284:	02075713          	srli	a4,a4,0x20
    80000288:	00e7e7b3          	or	a5,a5,a4
    8000028c:	000eb717          	auipc	a4,0xeb
    80000290:	c8f73a23          	sd	a5,-876(a4) # 800eaf20 <boot_time>
    80000294:	00008067          	ret

0000000080000298 <__am_timer_uptime>:
    80000298:	00500713          	li	a4,5
    8000029c:	01d71713          	slli	a4,a4,0x1d
    800002a0:	04c72783          	lw	a5,76(a4)
    800002a4:	04872703          	lw	a4,72(a4)
    800002a8:	02079793          	slli	a5,a5,0x20
    800002ac:	02071713          	slli	a4,a4,0x20
    800002b0:	02075713          	srli	a4,a4,0x20
    800002b4:	00e7e7b3          	or	a5,a5,a4
    800002b8:	000eb717          	auipc	a4,0xeb
    800002bc:	c6873703          	ld	a4,-920(a4) # 800eaf20 <boot_time>
    800002c0:	40e787b3          	sub	a5,a5,a4
    800002c4:	00f53023          	sd	a5,0(a0)
    800002c8:	00008067          	ret

00000000800002cc <__am_timer_rtc>:
    800002cc:	76c00793          	li	a5,1900
    800002d0:	00052a23          	sw	zero,20(a0)
    800002d4:	00052823          	sw	zero,16(a0)
    800002d8:	00052623          	sw	zero,12(a0)
    800002dc:	00052423          	sw	zero,8(a0)
    800002e0:	00052223          	sw	zero,4(a0)
    800002e4:	00f52023          	sw	a5,0(a0)
    800002e8:	00008067          	ret

00000000800002ec <__am_input_keybrd>:
    800002ec:	00500793          	li	a5,5
    800002f0:	01d79793          	slli	a5,a5,0x1d
    800002f4:	0607a783          	lw	a5,96(a5)
    800002f8:	ffff86b7          	lui	a3,0xffff8
    800002fc:	fff68693          	addi	a3,a3,-1 # ffffffffffff7fff <_end+0xffffffff7ff04fff>
    80000300:	00f7d71b          	srliw	a4,a5,0xf
    80000304:	00177713          	andi	a4,a4,1
    80000308:	00d7f7b3          	and	a5,a5,a3
    8000030c:	00e50023          	sb	a4,0(a0)
    80000310:	00f52223          	sw	a5,4(a0)
    80000314:	00008067          	ret

0000000080000318 <__am_gpu_init>:
    80000318:	00008067          	ret

000000008000031c <__am_gpu_config>:
    8000031c:	00000797          	auipc	a5,0x0
    80000320:	1d478793          	addi	a5,a5,468 # 800004f0 <_etext+0x8c>
    80000324:	0007a603          	lw	a2,0(a5)
    80000328:	0047a683          	lw	a3,4(a5)
    8000032c:	0087a703          	lw	a4,8(a5)
    80000330:	00c7a783          	lw	a5,12(a5)
    80000334:	00c52023          	sw	a2,0(a0)
    80000338:	00d52223          	sw	a3,4(a0)
    8000033c:	00e52423          	sw	a4,8(a0)
    80000340:	00f52623          	sw	a5,12(a0)
    80000344:	00008067          	ret

0000000080000348 <__am_gpu_fbdraw>:
    80000348:	01452283          	lw	t0,20(a0)
    8000034c:	00052783          	lw	a5,0(a0)
    80000350:	00452703          	lw	a4,4(a0)
    80000354:	01052f83          	lw	t6,16(a0)
    80000358:	06505e63          	blez	t0,800003d4 <__am_gpu_fbdraw+0x8c>
    8000035c:	19000813          	li	a6,400
    80000360:	02e8083b          	mulw	a6,a6,a4
    80000364:	ffff8e1b          	addiw	t3,t6,-1
    80000368:	020e1e13          	slli	t3,t3,0x20
    8000036c:	000ebf17          	auipc	t5,0xeb
    80000370:	bacf3f03          	ld	t5,-1108(t5) # 800eaf18 <fb>
    80000374:	00000893          	li	a7,0
    80000378:	00000593          	li	a1,0
    8000037c:	000f8e9b          	sext.w	t4,t6
    80000380:	020e5e13          	srli	t3,t3,0x20
    80000384:	00f8083b          	addw	a6,a6,a5
    80000388:	05f05063          	blez	t6,800003c8 <__am_gpu_fbdraw+0x80>
    8000038c:	00853783          	ld	a5,8(a0)
    80000390:	00be0633          	add	a2,t3,a1
    80000394:	00259693          	slli	a3,a1,0x2
    80000398:	00478313          	addi	t1,a5,4
    8000039c:	00281713          	slli	a4,a6,0x2
    800003a0:	00261613          	slli	a2,a2,0x2
    800003a4:	00d787b3          	add	a5,a5,a3
    800003a8:	00ef0733          	add	a4,t5,a4
    800003ac:	00660633          	add	a2,a2,t1
    800003b0:	0007a683          	lw	a3,0(a5)
    800003b4:	00478793          	addi	a5,a5,4
    800003b8:	00470713          	addi	a4,a4,4
    800003bc:	fed72e23          	sw	a3,-4(a4)
    800003c0:	fec798e3          	bne	a5,a2,800003b0 <__am_gpu_fbdraw+0x68>
    800003c4:	01d585bb          	addw	a1,a1,t4
    800003c8:	0018889b          	addiw	a7,a7,1
    800003cc:	1908081b          	addiw	a6,a6,400
    800003d0:	fb129ce3          	bne	t0,a7,80000388 <__am_gpu_fbdraw+0x40>
    800003d4:	01854783          	lbu	a5,24(a0)
    800003d8:	00078a63          	beqz	a5,800003ec <__am_gpu_fbdraw+0xa4>
    800003dc:	00500793          	li	a5,5
    800003e0:	01d79793          	slli	a5,a5,0x1d
    800003e4:	00100713          	li	a4,1
    800003e8:	10e7a223          	sw	a4,260(a5)
    800003ec:	00008067          	ret

00000000800003f0 <__am_gpu_status>:
    800003f0:	00100793          	li	a5,1
    800003f4:	00f50023          	sb	a5,0(a0)
    800003f8:	00008067          	ret

00000000800003fc <__am_audio_init>:
    800003fc:	00008067          	ret

0000000080000400 <__am_audio_config>:
    80000400:	00050023          	sb	zero,0(a0)
    80000404:	00008067          	ret

0000000080000408 <__am_audio_ctrl>:
    80000408:	00008067          	ret

000000008000040c <__am_audio_status>:
    8000040c:	00052023          	sw	zero,0(a0)
    80000410:	00008067          	ret

0000000080000414 <__am_audio_play>:
    80000414:	00008067          	ret

0000000080000418 <__am_disk_config>:
    80000418:	00050023          	sb	zero,0(a0)
    8000041c:	00008067          	ret

0000000080000420 <__am_disk_status>:
    80000420:	00008067          	ret

0000000080000424 <__am_disk_blkio>:
    80000424:	00008067          	ret

0000000080000428 <putch>:
    80000428:	00500793          	li	a5,5
    8000042c:	01d79793          	slli	a5,a5,0x1d
    80000430:	3ea78c23          	sb	a0,1016(a5)
    80000434:	00008067          	ret

0000000080000438 <halt>:
    80000438:	00050513          	mv	a0,a0
    8000043c:	00100073          	ebreak
    80000440:	0000006f          	j	80000440 <halt+0x8>

0000000080000444 <_trm_init>:
    80000444:	ff010113          	addi	sp,sp,-16
    80000448:	00000517          	auipc	a0,0x0
    8000044c:	0c050513          	addi	a0,a0,192 # 80000508 <mainargs>
    80000450:	00113423          	sd	ra,8(sp)
    80000454:	c15ff0ef          	jal	ra,80000068 <main>
    80000458:	00050513          	mv	a0,a0
    8000045c:	00100073          	ebreak
    80000460:	0000006f          	j	80000460 <_trm_init+0x1c>
