
/home/cyh/ysyx-workbench/nanos-lite/build/nanos-lite-riscv64-npc.elf:     file format elf64-littleriscv


Disassembly of section .text:

0000000080000000 <_start>:
    80000000:	00000413          	li	s0,0
    80000004:	02f2c117          	auipc	sp,0x2f2c
    80000008:	ffc10113          	addi	sp,sp,-4 # 82f2c000 <_end>
    8000000c:	6c9000ef          	jal	ra,80000ed4 <_trm_init>

0000000080000010 <main>:
    80000010:	ff010113          	addi	sp,sp,-16
    80000014:	00003597          	auipc	a1,0x3
    80000018:	11558593          	addi	a1,a1,277 # 80003129 <logo>
    8000001c:	00002517          	auipc	a0,0x2
    80000020:	ef450513          	addi	a0,a0,-268 # 80001f10 <_etext+0x4>
    80000024:	00113423          	sd	ra,8(sp)
    80000028:	00813023          	sd	s0,0(sp)
    8000002c:	1e5010ef          	jal	ra,80001a10 <printf>
    80000030:	00004417          	auipc	s0,0x4
    80000034:	a1040413          	addi	s0,s0,-1520 # 80003a40 <__func__.0>
    80000038:	00040693          	mv	a3,s0
    8000003c:	00d00613          	li	a2,13
    80000040:	00002597          	auipc	a1,0x2
    80000044:	ed858593          	addi	a1,a1,-296 # 80001f18 <_etext+0xc>
    80000048:	00002517          	auipc	a0,0x2
    8000004c:	f0050513          	addi	a0,a0,-256 # 80001f48 <_etext+0x3c>
    80000050:	1c1010ef          	jal	ra,80001a10 <printf>
    80000054:	00002797          	auipc	a5,0x2
    80000058:	f2c78793          	addi	a5,a5,-212 # 80001f80 <_etext+0x74>
    8000005c:	00002717          	auipc	a4,0x2
    80000060:	f3470713          	addi	a4,a4,-204 # 80001f90 <_etext+0x84>
    80000064:	00e00613          	li	a2,14
    80000068:	00002597          	auipc	a1,0x2
    8000006c:	eb058593          	addi	a1,a1,-336 # 80001f18 <_etext+0xc>
    80000070:	00040693          	mv	a3,s0
    80000074:	00002517          	auipc	a0,0x2
    80000078:	f2c50513          	addi	a0,a0,-212 # 80001fa0 <_etext+0x94>
    8000007c:	195010ef          	jal	ra,80001a10 <printf>
    80000080:	2e4000ef          	jal	ra,80000364 <init_mm>
    80000084:	66c000ef          	jal	ra,800006f0 <init_device>
    80000088:	7ac000ef          	jal	ra,80000834 <init_ramdisk>
    8000008c:	5a1000ef          	jal	ra,80000e2c <init_irq>
    80000090:	4c5000ef          	jal	ra,80000d54 <init_fs>
    80000094:	5d5000ef          	jal	ra,80000e68 <init_proc>
    80000098:	00040693          	mv	a3,s0
    8000009c:	02000613          	li	a2,32
    800000a0:	00002597          	auipc	a1,0x2
    800000a4:	e7858593          	addi	a1,a1,-392 # 80001f18 <_etext+0xc>
    800000a8:	00002517          	auipc	a0,0x2
    800000ac:	f2850513          	addi	a0,a0,-216 # 80001fd0 <_etext+0xc4>
    800000b0:	161010ef          	jal	ra,80001a10 <printf>
    800000b4:	2d0010ef          	jal	ra,80001384 <yield>
    800000b8:	00040693          	mv	a3,s0
    800000bc:	02600613          	li	a2,38
    800000c0:	00002597          	auipc	a1,0x2
    800000c4:	e5858593          	addi	a1,a1,-424 # 80001f18 <_etext+0xc>
    800000c8:	00002517          	auipc	a0,0x2
    800000cc:	f3850513          	addi	a0,a0,-200 # 80002000 <_etext+0xf4>
    800000d0:	141010ef          	jal	ra,80001a10 <printf>
    800000d4:	00100513          	li	a0,1
    800000d8:	5f1000ef          	jal	ra,80000ec8 <halt>

00000000800000dc <sys_execve>:
    800000dc:	ff010113          	addi	sp,sp,-16
    800000e0:	00050593          	mv	a1,a0
    800000e4:	00000513          	li	a0,0
    800000e8:	00113423          	sd	ra,8(sp)
    800000ec:	77c000ef          	jal	ra,80000868 <naive_uload>
    800000f0:	00002717          	auipc	a4,0x2
    800000f4:	f6870713          	addi	a4,a4,-152 # 80002058 <_etext+0x14c>
    800000f8:	00002697          	auipc	a3,0x2
    800000fc:	09068693          	addi	a3,a3,144 # 80002188 <__func__.1>
    80000100:	04000613          	li	a2,64
    80000104:	00002597          	auipc	a1,0x2
    80000108:	f5c58593          	addi	a1,a1,-164 # 80002060 <_etext+0x154>
    8000010c:	00002517          	auipc	a0,0x2
    80000110:	f8c50513          	addi	a0,a0,-116 # 80002098 <_etext+0x18c>
    80000114:	0fd010ef          	jal	ra,80001a10 <printf>
    80000118:	00100513          	li	a0,1
    8000011c:	5ad000ef          	jal	ra,80000ec8 <halt>

0000000080000120 <do_syscall>:
    80000120:	fe010113          	addi	sp,sp,-32
    80000124:	00913423          	sd	s1,8(sp)
    80000128:	08853483          	ld	s1,136(a0)
    8000012c:	00113c23          	sd	ra,24(sp)
    80000130:	00813823          	sd	s0,16(sp)
    80000134:	01213023          	sd	s2,0(sp)
    80000138:	01300793          	li	a5,19
    8000013c:	1c97e063          	bltu	a5,s1,800002fc <do_syscall+0x1dc>
    80000140:	00002717          	auipc	a4,0x2
    80000144:	fe870713          	addi	a4,a4,-24 # 80002128 <_etext+0x21c>
    80000148:	00249793          	slli	a5,s1,0x2
    8000014c:	00e787b3          	add	a5,a5,a4
    80000150:	0007a783          	lw	a5,0(a5)
    80000154:	00050413          	mv	s0,a0
    80000158:	00e787b3          	add	a5,a5,a4
    8000015c:	00078067          	jr	a5
    80000160:	00002597          	auipc	a1,0x2
    80000164:	ee858593          	addi	a1,a1,-280 # 80002048 <_etext+0x13c>
    80000168:	00000513          	li	a0,0
    8000016c:	6fc000ef          	jal	ra,80000868 <naive_uload>
    80000170:	01813083          	ld	ra,24(sp)
    80000174:	04943823          	sd	s1,80(s0)
    80000178:	01013403          	ld	s0,16(sp)
    8000017c:	00813483          	ld	s1,8(sp)
    80000180:	00013903          	ld	s2,0(sp)
    80000184:	02010113          	addi	sp,sp,32
    80000188:	00008067          	ret
    8000018c:	1f8010ef          	jal	ra,80001384 <yield>
    80000190:	00000493          	li	s1,0
    80000194:	04943823          	sd	s1,80(s0)
    80000198:	01813083          	ld	ra,24(sp)
    8000019c:	01013403          	ld	s0,16(sp)
    800001a0:	00813483          	ld	s1,8(sp)
    800001a4:	00013903          	ld	s2,0(sp)
    800001a8:	02010113          	addi	sp,sp,32
    800001ac:	00008067          	ret
    800001b0:	06052603          	lw	a2,96(a0)
    800001b4:	05852583          	lw	a1,88(a0)
    800001b8:	05053503          	ld	a0,80(a0)
    800001bc:	079000ef          	jal	ra,80000a34 <fs_open>
    800001c0:	00050493          	mv	s1,a0
    800001c4:	04943823          	sd	s1,80(s0)
    800001c8:	01813083          	ld	ra,24(sp)
    800001cc:	01013403          	ld	s0,16(sp)
    800001d0:	00813483          	ld	s1,8(sp)
    800001d4:	00013903          	ld	s2,0(sp)
    800001d8:	02010113          	addi	sp,sp,32
    800001dc:	00008067          	ret
    800001e0:	06053603          	ld	a2,96(a0)
    800001e4:	05853583          	ld	a1,88(a0)
    800001e8:	05052503          	lw	a0,80(a0)
    800001ec:	101000ef          	jal	ra,80000aec <fs_read>
    800001f0:	00050493          	mv	s1,a0
    800001f4:	04943823          	sd	s1,80(s0)
    800001f8:	01813083          	ld	ra,24(sp)
    800001fc:	01013403          	ld	s0,16(sp)
    80000200:	00813483          	ld	s1,8(sp)
    80000204:	00013903          	ld	s2,0(sp)
    80000208:	02010113          	addi	sp,sp,32
    8000020c:	00008067          	ret
    80000210:	06053603          	ld	a2,96(a0)
    80000214:	05853583          	ld	a1,88(a0)
    80000218:	05052503          	lw	a0,80(a0)
    8000021c:	169000ef          	jal	ra,80000b84 <fs_write>
    80000220:	00050493          	mv	s1,a0
    80000224:	04943823          	sd	s1,80(s0)
    80000228:	01813083          	ld	ra,24(sp)
    8000022c:	01013403          	ld	s0,16(sp)
    80000230:	00813483          	ld	s1,8(sp)
    80000234:	00013903          	ld	s2,0(sp)
    80000238:	02010113          	addi	sp,sp,32
    8000023c:	00008067          	ret
    80000240:	05052503          	lw	a0,80(a0)
    80000244:	2e9000ef          	jal	ra,80000d2c <fs_close>
    80000248:	00050493          	mv	s1,a0
    8000024c:	04943823          	sd	s1,80(s0)
    80000250:	01813083          	ld	ra,24(sp)
    80000254:	01013403          	ld	s0,16(sp)
    80000258:	00813483          	ld	s1,8(sp)
    8000025c:	00013903          	ld	s2,0(sp)
    80000260:	02010113          	addi	sp,sp,32
    80000264:	00008067          	ret
    80000268:	06052603          	lw	a2,96(a0)
    8000026c:	05853583          	ld	a1,88(a0)
    80000270:	05052503          	lw	a0,80(a0)
    80000274:	215000ef          	jal	ra,80000c88 <fs_lseek>
    80000278:	00050493          	mv	s1,a0
    8000027c:	04943823          	sd	s1,80(s0)
    80000280:	01813083          	ld	ra,24(sp)
    80000284:	01013403          	ld	s0,16(sp)
    80000288:	00813483          	ld	s1,8(sp)
    8000028c:	00013903          	ld	s2,0(sp)
    80000290:	02010113          	addi	sp,sp,32
    80000294:	00008067          	ret
    80000298:	05053783          	ld	a5,80(a0)
    8000029c:	00000493          	li	s1,0
    800002a0:	04943823          	sd	s1,80(s0)
    800002a4:	01813083          	ld	ra,24(sp)
    800002a8:	01013403          	ld	s0,16(sp)
    800002ac:	02c3c717          	auipc	a4,0x2c3c
    800002b0:	baf73e23          	sd	a5,-1092(a4) # 82c3be68 <program_break>
    800002b4:	00813483          	ld	s1,8(sp)
    800002b8:	00013903          	ld	s2,0(sp)
    800002bc:	02010113          	addi	sp,sp,32
    800002c0:	00008067          	ret
    800002c4:	05053483          	ld	s1,80(a0)
    800002c8:	05853903          	ld	s2,88(a0)
    800002cc:	06049663          	bnez	s1,80000338 <do_syscall+0x218>
    800002d0:	00090663          	beqz	s2,800002dc <do_syscall+0x1bc>
    800002d4:	00092023          	sw	zero,0(s2)
    800002d8:	00092223          	sw	zero,4(s2)
    800002dc:	00000493          	li	s1,0
    800002e0:	04943823          	sd	s1,80(s0)
    800002e4:	01813083          	ld	ra,24(sp)
    800002e8:	01013403          	ld	s0,16(sp)
    800002ec:	00813483          	ld	s1,8(sp)
    800002f0:	00013903          	ld	s2,0(sp)
    800002f4:	02010113          	addi	sp,sp,32
    800002f8:	00008067          	ret
    800002fc:	00048713          	mv	a4,s1
    80000300:	00002697          	auipc	a3,0x2
    80000304:	e7868693          	addi	a3,a3,-392 # 80002178 <__func__.0>
    80000308:	05f00613          	li	a2,95
    8000030c:	00002597          	auipc	a1,0x2
    80000310:	d5458593          	addi	a1,a1,-684 # 80002060 <_etext+0x154>
    80000314:	00002517          	auipc	a0,0x2
    80000318:	dcc50513          	addi	a0,a0,-564 # 800020e0 <_etext+0x1d4>
    8000031c:	6f4010ef          	jal	ra,80001a10 <printf>
    80000320:	00100513          	li	a0,1
    80000324:	3a5000ef          	jal	ra,80000ec8 <halt>
    80000328:	06053603          	ld	a2,96(a0)
    8000032c:	05853583          	ld	a1,88(a0)
    80000330:	05053503          	ld	a0,80(a0)
    80000334:	da9ff0ef          	jal	ra,800000dc <sys_execve>
    80000338:	00848593          	addi	a1,s1,8
    8000033c:	00600513          	li	a0,6
    80000340:	4a1000ef          	jal	ra,80000fe0 <ioe_read>
    80000344:	0084b783          	ld	a5,8(s1)
    80000348:	000f4737          	lui	a4,0xf4
    8000034c:	24070713          	addi	a4,a4,576 # f4240 <_entry_offset+0xf4240>
    80000350:	02e7c6b3          	div	a3,a5,a4
    80000354:	02e7e7b3          	rem	a5,a5,a4
    80000358:	00d4b023          	sd	a3,0(s1)
    8000035c:	00f4b423          	sd	a5,8(s1)
    80000360:	f71ff06f          	j	800002d0 <do_syscall+0x1b0>

0000000080000364 <init_mm>:
    80000364:	00001737          	lui	a4,0x1
    80000368:	fff70713          	addi	a4,a4,-1 # fff <_entry_offset+0xfff>
    8000036c:	02c3d797          	auipc	a5,0x2c3d
    80000370:	0e47b783          	ld	a5,228(a5) # 82c3d450 <heap>
    80000374:	00e787b3          	add	a5,a5,a4
    80000378:	fffff737          	lui	a4,0xfffff
    8000037c:	00e7f733          	and	a4,a5,a4
    80000380:	00003697          	auipc	a3,0x3
    80000384:	6c868693          	addi	a3,a3,1736 # 80003a48 <__func__.0>
    80000388:	01a00613          	li	a2,26
    8000038c:	00002597          	auipc	a1,0x2
    80000390:	e0c58593          	addi	a1,a1,-500 # 80002198 <__func__.1+0x10>
    80000394:	00002517          	auipc	a0,0x2
    80000398:	e7450513          	addi	a0,a0,-396 # 80002208 <__func__.1+0x80>
    8000039c:	6740106f          	j	80001a10 <printf>

00000000800003a0 <serial_write>:
    800003a0:	fe010113          	addi	sp,sp,-32
    800003a4:	00813823          	sd	s0,16(sp)
    800003a8:	00913423          	sd	s1,8(sp)
    800003ac:	01213023          	sd	s2,0(sp)
    800003b0:	00113c23          	sd	ra,24(sp)
    800003b4:	00060493          	mv	s1,a2
    800003b8:	00050913          	mv	s2,a0
    800003bc:	00000413          	li	s0,0
    800003c0:	00061a63          	bnez	a2,800003d4 <serial_write+0x34>
    800003c4:	0200006f          	j	800003e4 <serial_write+0x44>
    800003c8:	00140413          	addi	s0,s0,1
    800003cc:	2ed000ef          	jal	ra,80000eb8 <putch>
    800003d0:	00940a63          	beq	s0,s1,800003e4 <serial_write+0x44>
    800003d4:	008907b3          	add	a5,s2,s0
    800003d8:	0007c503          	lbu	a0,0(a5)
    800003dc:	fe0516e3          	bnez	a0,800003c8 <serial_write+0x28>
    800003e0:	00040493          	mv	s1,s0
    800003e4:	01813083          	ld	ra,24(sp)
    800003e8:	01013403          	ld	s0,16(sp)
    800003ec:	00013903          	ld	s2,0(sp)
    800003f0:	00048513          	mv	a0,s1
    800003f4:	00813483          	ld	s1,8(sp)
    800003f8:	02010113          	addi	sp,sp,32
    800003fc:	00008067          	ret

0000000080000400 <events_read>:
    80000400:	f6010113          	addi	sp,sp,-160
    80000404:	08813823          	sd	s0,144(sp)
    80000408:	02f23417          	auipc	s0,0x2f23
    8000040c:	bf840413          	addi	s0,s0,-1032 # 82f23000 <kbd>
    80000410:	09213023          	sd	s2,128(sp)
    80000414:	07313c23          	sd	s3,120(sp)
    80000418:	00058913          	mv	s2,a1
    8000041c:	00050993          	mv	s3,a0
    80000420:	00040593          	mv	a1,s0
    80000424:	00800513          	li	a0,8
    80000428:	08913423          	sd	s1,136(sp)
    8000042c:	08113c23          	sd	ra,152(sp)
    80000430:	00060493          	mv	s1,a2
    80000434:	3ad000ef          	jal	ra,80000fe0 <ioe_read>
    80000438:	00442783          	lw	a5,4(s0)
    8000043c:	06078c63          	beqz	a5,800004b4 <events_read+0xb4>
    80000440:	00044703          	lbu	a4,0(s0)
    80000444:	06400613          	li	a2,100
    80000448:	06070263          	beqz	a4,800004ac <events_read+0xac>
    8000044c:	02c3c717          	auipc	a4,0x2c3c
    80000450:	a2470713          	addi	a4,a4,-1500 # 82c3be70 <keyname>
    80000454:	00379793          	slli	a5,a5,0x3
    80000458:	00f707b3          	add	a5,a4,a5
    8000045c:	0007b683          	ld	a3,0(a5)
    80000460:	00002597          	auipc	a1,0x2
    80000464:	de858593          	addi	a1,a1,-536 # 80002248 <__func__.1+0xc0>
    80000468:	00810513          	addi	a0,sp,8
    8000046c:	265010ef          	jal	ra,80001ed0 <sprintf>
    80000470:	00810513          	addi	a0,sp,8
    80000474:	0a4010ef          	jal	ra,80001518 <strlen>
    80000478:	0005041b          	sext.w	s0,a0
    8000047c:	0484ee63          	bltu	s1,s0,800004d8 <events_read+0xd8>
    80000480:	01298533          	add	a0,s3,s2
    80000484:	00810593          	addi	a1,sp,8
    80000488:	0c8010ef          	jal	ra,80001550 <strcpy>
    8000048c:	09813083          	ld	ra,152(sp)
    80000490:	00040513          	mv	a0,s0
    80000494:	09013403          	ld	s0,144(sp)
    80000498:	08813483          	ld	s1,136(sp)
    8000049c:	08013903          	ld	s2,128(sp)
    800004a0:	07813983          	ld	s3,120(sp)
    800004a4:	0a010113          	addi	sp,sp,160
    800004a8:	00008067          	ret
    800004ac:	07500613          	li	a2,117
    800004b0:	f9dff06f          	j	8000044c <events_read+0x4c>
    800004b4:	00000413          	li	s0,0
    800004b8:	09813083          	ld	ra,152(sp)
    800004bc:	00040513          	mv	a0,s0
    800004c0:	09013403          	ld	s0,144(sp)
    800004c4:	08813483          	ld	s1,136(sp)
    800004c8:	08013903          	ld	s2,128(sp)
    800004cc:	07813983          	ld	s3,120(sp)
    800004d0:	0a010113          	addi	sp,sp,160
    800004d4:	00008067          	ret
    800004d8:	00002717          	auipc	a4,0x2
    800004dc:	d7870713          	addi	a4,a4,-648 # 80002250 <__func__.1+0xc8>
    800004e0:	00002697          	auipc	a3,0x2
    800004e4:	10868693          	addi	a3,a3,264 # 800025e8 <__func__.3>
    800004e8:	02100613          	li	a2,33
    800004ec:	00002597          	auipc	a1,0x2
    800004f0:	d7458593          	addi	a1,a1,-652 # 80002260 <__func__.1+0xd8>
    800004f4:	00002517          	auipc	a0,0x2
    800004f8:	ba450513          	addi	a0,a0,-1116 # 80002098 <_etext+0x18c>
    800004fc:	514010ef          	jal	ra,80001a10 <printf>
    80000500:	00100513          	li	a0,1
    80000504:	1c5000ef          	jal	ra,80000ec8 <halt>

0000000080000508 <dispinfo_read>:
    80000508:	f7010113          	addi	sp,sp,-144
    8000050c:	08813023          	sd	s0,128(sp)
    80000510:	02c3e417          	auipc	s0,0x2c3e
    80000514:	af040413          	addi	s0,s0,-1296 # 82c3e000 <cfg>
    80000518:	00040593          	mv	a1,s0
    8000051c:	07213823          	sd	s2,112(sp)
    80000520:	00050913          	mv	s2,a0
    80000524:	00900513          	li	a0,9
    80000528:	08113423          	sd	ra,136(sp)
    8000052c:	06913c23          	sd	s1,120(sp)
    80000530:	00060493          	mv	s1,a2
    80000534:	2ad000ef          	jal	ra,80000fe0 <ioe_read>
    80000538:	00842683          	lw	a3,8(s0)
    8000053c:	00442603          	lw	a2,4(s0)
    80000540:	00002597          	auipc	a1,0x2
    80000544:	d5858593          	addi	a1,a1,-680 # 80002298 <__func__.1+0x110>
    80000548:	00810513          	addi	a0,sp,8
    8000054c:	185010ef          	jal	ra,80001ed0 <sprintf>
    80000550:	00810513          	addi	a0,sp,8
    80000554:	7c5000ef          	jal	ra,80001518 <strlen>
    80000558:	0005041b          	sext.w	s0,a0
    8000055c:	0284e663          	bltu	s1,s0,80000588 <dispinfo_read+0x80>
    80000560:	00810593          	addi	a1,sp,8
    80000564:	00090513          	mv	a0,s2
    80000568:	7e9000ef          	jal	ra,80001550 <strcpy>
    8000056c:	08813083          	ld	ra,136(sp)
    80000570:	00040513          	mv	a0,s0
    80000574:	08013403          	ld	s0,128(sp)
    80000578:	07813483          	ld	s1,120(sp)
    8000057c:	07013903          	ld	s2,112(sp)
    80000580:	09010113          	addi	sp,sp,144
    80000584:	00008067          	ret
    80000588:	00002717          	auipc	a4,0x2
    8000058c:	cc870713          	addi	a4,a4,-824 # 80002250 <__func__.1+0xc8>
    80000590:	00002697          	auipc	a3,0x2
    80000594:	04868693          	addi	a3,a3,72 # 800025d8 <__func__.2>
    80000598:	02b00613          	li	a2,43
    8000059c:	00002597          	auipc	a1,0x2
    800005a0:	cc458593          	addi	a1,a1,-828 # 80002260 <__func__.1+0xd8>
    800005a4:	00002517          	auipc	a0,0x2
    800005a8:	af450513          	addi	a0,a0,-1292 # 80002098 <_etext+0x18c>
    800005ac:	464010ef          	jal	ra,80001a10 <printf>
    800005b0:	00100513          	li	a0,1
    800005b4:	115000ef          	jal	ra,80000ec8 <halt>

00000000800005b8 <fb_write>:
    800005b8:	ff010113          	addi	sp,sp,-16
    800005bc:	00813023          	sd	s0,0(sp)
    800005c0:	00113423          	sd	ra,8(sp)
    800005c4:	00060413          	mv	s0,a2
    800005c8:	0c060a63          	beqz	a2,8000069c <fb_write+0xe4>
    800005cc:	02c3e617          	auipc	a2,0x2c3e
    800005d0:	a6460613          	addi	a2,a2,-1436 # 82c3e030 <pixels>
    800005d4:	00060793          	mv	a5,a2
    800005d8:	008606b3          	add	a3,a2,s0
    800005dc:	00054703          	lbu	a4,0(a0)
    800005e0:	00178793          	addi	a5,a5,1
    800005e4:	00150513          	addi	a0,a0,1
    800005e8:	fee78fa3          	sb	a4,-1(a5)
    800005ec:	fed798e3          	bne	a5,a3,800005dc <fb_write+0x24>
    800005f0:	00b40733          	add	a4,s0,a1
    800005f4:	02c3e697          	auipc	a3,0x2c3e
    800005f8:	a106a683          	lw	a3,-1520(a3) # 82c3e004 <cfg+0x4>
    800005fc:	0025d793          	srli	a5,a1,0x2
    80000600:	00275713          	srli	a4,a4,0x2
    80000604:	02d7d333          	divu	t1,a5,a3
    80000608:	fff70713          	addi	a4,a4,-1
    8000060c:	00100813          	li	a6,1
    80000610:	02c3e597          	auipc	a1,0x2c3e
    80000614:	a0058593          	addi	a1,a1,-1536 # 82c3e010 <ctl>
    80000618:	00c5b423          	sd	a2,8(a1)
    8000061c:	25700613          	li	a2,599
    80000620:	02d7f7b3          	remu	a5,a5,a3
    80000624:	406808bb          	subw	a7,a6,t1
    80000628:	0003031b          	sext.w	t1,t1
    8000062c:	0065a223          	sw	t1,4(a1)
    80000630:	02d75533          	divu	a0,a4,a3
    80000634:	40f8083b          	subw	a6,a6,a5
    80000638:	0007879b          	sext.w	a5,a5
    8000063c:	00f5a023          	sw	a5,0(a1)
    80000640:	02d77733          	remu	a4,a4,a3
    80000644:	00a8853b          	addw	a0,a7,a0
    80000648:	00a5aa23          	sw	a0,20(a1)
    8000064c:	00e806bb          	addw	a3,a6,a4
    80000650:	00d5a823          	sw	a3,16(a1)
    80000654:	04664a63          	blt	a2,t1,800006a8 <fb_write+0xf0>
    80000658:	31f00613          	li	a2,799
    8000065c:	04f64663          	blt	a2,a5,800006a8 <fb_write+0xf0>
    80000660:	006508bb          	addw	a7,a0,t1
    80000664:	25800613          	li	a2,600
    80000668:	05164063          	blt	a2,a7,800006a8 <fb_write+0xf0>
    8000066c:	00f6883b          	addw	a6,a3,a5
    80000670:	32000613          	li	a2,800
    80000674:	03064a63          	blt	a2,a6,800006a8 <fb_write+0xf0>
    80000678:	00b00513          	li	a0,11
    8000067c:	00100793          	li	a5,1
    80000680:	00f58c23          	sb	a5,24(a1)
    80000684:	15d000ef          	jal	ra,80000fe0 <ioe_read>
    80000688:	00813083          	ld	ra,8(sp)
    8000068c:	00040513          	mv	a0,s0
    80000690:	00013403          	ld	s0,0(sp)
    80000694:	01010113          	addi	sp,sp,16
    80000698:	00008067          	ret
    8000069c:	02c3e617          	auipc	a2,0x2c3e
    800006a0:	99460613          	addi	a2,a2,-1644 # 82c3e030 <pixels>
    800006a4:	f4dff06f          	j	800005f0 <fb_write+0x38>
    800006a8:	00050713          	mv	a4,a0
    800006ac:	00030613          	mv	a2,t1
    800006b0:	00078593          	mv	a1,a5
    800006b4:	00002517          	auipc	a0,0x2
    800006b8:	bfc50513          	addi	a0,a0,-1028 # 800022b0 <__func__.1+0x128>
    800006bc:	354010ef          	jal	ra,80001a10 <printf>
    800006c0:	00002717          	auipc	a4,0x2
    800006c4:	99870713          	addi	a4,a4,-1640 # 80002058 <_etext+0x14c>
    800006c8:	00002697          	auipc	a3,0x2
    800006cc:	f0068693          	addi	a3,a3,-256 # 800025c8 <__func__.1>
    800006d0:	04000613          	li	a2,64
    800006d4:	00002597          	auipc	a1,0x2
    800006d8:	b8c58593          	addi	a1,a1,-1140 # 80002260 <__func__.1+0xd8>
    800006dc:	00002517          	auipc	a0,0x2
    800006e0:	9bc50513          	addi	a0,a0,-1604 # 80002098 <_etext+0x18c>
    800006e4:	32c010ef          	jal	ra,80001a10 <printf>
    800006e8:	00100513          	li	a0,1
    800006ec:	7dc000ef          	jal	ra,80000ec8 <halt>

00000000800006f0 <init_device>:
    800006f0:	ff010113          	addi	sp,sp,-16
    800006f4:	00002697          	auipc	a3,0x2
    800006f8:	ec468693          	addi	a3,a3,-316 # 800025b8 <__func__.0>
    800006fc:	04800613          	li	a2,72
    80000700:	00002597          	auipc	a1,0x2
    80000704:	b6058593          	addi	a1,a1,-1184 # 80002260 <__func__.1+0xd8>
    80000708:	00002517          	auipc	a0,0x2
    8000070c:	bc050513          	addi	a0,a0,-1088 # 800022c8 <__func__.1+0x140>
    80000710:	00113423          	sd	ra,8(sp)
    80000714:	2fc010ef          	jal	ra,80001a10 <printf>
    80000718:	00813083          	ld	ra,8(sp)
    8000071c:	01010113          	addi	sp,sp,16
    80000720:	0690006f          	j	80000f88 <ioe_init>

0000000080000724 <ramdisk_read>:
    80000724:	ff010113          	addi	sp,sp,-16
    80000728:	00003717          	auipc	a4,0x3
    8000072c:	33970713          	addi	a4,a4,825 # 80003a61 <ramdisk_start>
    80000730:	02c3b697          	auipc	a3,0x2c3b
    80000734:	73168693          	addi	a3,a3,1841 # 82c3be61 <_data>
    80000738:	00113423          	sd	ra,8(sp)
    8000073c:	00813023          	sd	s0,0(sp)
    80000740:	40e686b3          	sub	a3,a3,a4
    80000744:	00c58833          	add	a6,a1,a2
    80000748:	0306e263          	bltu	a3,a6,8000076c <ramdisk_read+0x48>
    8000074c:	00b705b3          	add	a1,a4,a1
    80000750:	00060413          	mv	s0,a2
    80000754:	020010ef          	jal	ra,80001774 <memcpy>
    80000758:	00813083          	ld	ra,8(sp)
    8000075c:	00040513          	mv	a0,s0
    80000760:	00013403          	ld	s0,0(sp)
    80000764:	01010113          	addi	sp,sp,16
    80000768:	00008067          	ret
    8000076c:	00002517          	auipc	a0,0x2
    80000770:	e8c50513          	addi	a0,a0,-372 # 800025f8 <__func__.3+0x10>
    80000774:	29c010ef          	jal	ra,80001a10 <printf>
    80000778:	00002717          	auipc	a4,0x2
    8000077c:	8e070713          	addi	a4,a4,-1824 # 80002058 <_etext+0x14c>
    80000780:	00002697          	auipc	a3,0x2
    80000784:	f5868693          	addi	a3,a3,-168 # 800026d8 <__func__.2>
    80000788:	01000613          	li	a2,16
    8000078c:	00002597          	auipc	a1,0x2
    80000790:	e9458593          	addi	a1,a1,-364 # 80002620 <__func__.3+0x38>
    80000794:	00002517          	auipc	a0,0x2
    80000798:	90450513          	addi	a0,a0,-1788 # 80002098 <_etext+0x18c>
    8000079c:	274010ef          	jal	ra,80001a10 <printf>
    800007a0:	00100513          	li	a0,1
    800007a4:	724000ef          	jal	ra,80000ec8 <halt>

00000000800007a8 <ramdisk_write>:
    800007a8:	ff010113          	addi	sp,sp,-16
    800007ac:	00003717          	auipc	a4,0x3
    800007b0:	2b570713          	addi	a4,a4,693 # 80003a61 <ramdisk_start>
    800007b4:	02c3b697          	auipc	a3,0x2c3b
    800007b8:	6ad68693          	addi	a3,a3,1709 # 82c3be61 <_data>
    800007bc:	00113423          	sd	ra,8(sp)
    800007c0:	00813023          	sd	s0,0(sp)
    800007c4:	40e686b3          	sub	a3,a3,a4
    800007c8:	00c58833          	add	a6,a1,a2
    800007cc:	0306e663          	bltu	a3,a6,800007f8 <ramdisk_write+0x50>
    800007d0:	00058793          	mv	a5,a1
    800007d4:	00050593          	mv	a1,a0
    800007d8:	00f70533          	add	a0,a4,a5
    800007dc:	00060413          	mv	s0,a2
    800007e0:	795000ef          	jal	ra,80001774 <memcpy>
    800007e4:	00813083          	ld	ra,8(sp)
    800007e8:	00040513          	mv	a0,s0
    800007ec:	00013403          	ld	s0,0(sp)
    800007f0:	01010113          	addi	sp,sp,16
    800007f4:	00008067          	ret
    800007f8:	00002517          	auipc	a0,0x2
    800007fc:	e6050513          	addi	a0,a0,-416 # 80002658 <__func__.3+0x70>
    80000800:	210010ef          	jal	ra,80001a10 <printf>
    80000804:	00002717          	auipc	a4,0x2
    80000808:	85470713          	addi	a4,a4,-1964 # 80002058 <_etext+0x14c>
    8000080c:	00002697          	auipc	a3,0x2
    80000810:	ebc68693          	addi	a3,a3,-324 # 800026c8 <__func__.1>
    80000814:	01a00613          	li	a2,26
    80000818:	00002597          	auipc	a1,0x2
    8000081c:	e0858593          	addi	a1,a1,-504 # 80002620 <__func__.3+0x38>
    80000820:	00002517          	auipc	a0,0x2
    80000824:	87850513          	addi	a0,a0,-1928 # 80002098 <_etext+0x18c>
    80000828:	1e8010ef          	jal	ra,80001a10 <printf>
    8000082c:	00100513          	li	a0,1
    80000830:	698000ef          	jal	ra,80000ec8 <halt>

0000000080000834 <init_ramdisk>:
    80000834:	02c3b797          	auipc	a5,0x2c3b
    80000838:	62d78793          	addi	a5,a5,1581 # 82c3be61 <_data>
    8000083c:	00003717          	auipc	a4,0x3
    80000840:	22570713          	addi	a4,a4,549 # 80003a61 <ramdisk_start>
    80000844:	40e78833          	sub	a6,a5,a4
    80000848:	00002697          	auipc	a3,0x2
    8000084c:	e7068693          	addi	a3,a3,-400 # 800026b8 <__func__.0>
    80000850:	02100613          	li	a2,33
    80000854:	00002597          	auipc	a1,0x2
    80000858:	dcc58593          	addi	a1,a1,-564 # 80002620 <__func__.3+0x38>
    8000085c:	00002517          	auipc	a0,0x2
    80000860:	e0c50513          	addi	a0,a0,-500 # 80002668 <__func__.3+0x80>
    80000864:	1ac0106f          	j	80001a10 <printf>

0000000080000868 <naive_uload>:
    80000868:	fd010113          	addi	sp,sp,-48
    8000086c:	00000613          	li	a2,0
    80000870:	00058513          	mv	a0,a1
    80000874:	00000593          	li	a1,0
    80000878:	02113423          	sd	ra,40(sp)
    8000087c:	02813023          	sd	s0,32(sp)
    80000880:	01213823          	sd	s2,16(sp)
    80000884:	00913c23          	sd	s1,24(sp)
    80000888:	01313423          	sd	s3,8(sp)
    8000088c:	1a8000ef          	jal	ra,80000a34 <fs_open>
    80000890:	00050413          	mv	s0,a0
    80000894:	4a0000ef          	jal	ra,80000d34 <get_file_size>
    80000898:	00050613          	mv	a2,a0
    8000089c:	02e12597          	auipc	a1,0x2e12
    800008a0:	39458593          	addi	a1,a1,916 # 82e12c30 <buf>
    800008a4:	00040513          	mv	a0,s0
    800008a8:	244000ef          	jal	ra,80000aec <fs_read>
    800008ac:	00040513          	mv	a0,s0
    800008b0:	47c000ef          	jal	ra,80000d2c <fs_close>
    800008b4:	02e12917          	auipc	s2,0x2e12
    800008b8:	37c90913          	addi	s2,s2,892 # 82e12c30 <buf>
    800008bc:	00092703          	lw	a4,0(s2)
    800008c0:	464c47b7          	lui	a5,0x464c4
    800008c4:	57f78793          	addi	a5,a5,1407 # 464c457f <_entry_offset+0x464c457f>
    800008c8:	02093403          	ld	s0,32(s2)
    800008cc:	0cf71c63          	bne	a4,a5,800009a4 <naive_uload+0x13c>
    800008d0:	03895783          	lhu	a5,56(s2)
    800008d4:	00890433          	add	s0,s2,s0
    800008d8:	00000493          	li	s1,0
    800008dc:	00100993          	li	s3,1
    800008e0:	00079c63          	bnez	a5,800008f8 <naive_uload+0x90>
    800008e4:	0500006f          	j	80000934 <naive_uload+0xcc>
    800008e8:	03895783          	lhu	a5,56(s2)
    800008ec:	0014849b          	addiw	s1,s1,1
    800008f0:	03840413          	addi	s0,s0,56
    800008f4:	04f4f063          	bgeu	s1,a5,80000934 <naive_uload+0xcc>
    800008f8:	00042783          	lw	a5,0(s0)
    800008fc:	ff3796e3          	bne	a5,s3,800008e8 <naive_uload+0x80>
    80000900:	02843603          	ld	a2,40(s0)
    80000904:	fe0602e3          	beqz	a2,800008e8 <naive_uload+0x80>
    80000908:	02043783          	ld	a5,32(s0)
    8000090c:	06079c63          	bnez	a5,80000984 <naive_uload+0x11c>
    80000910:	01043503          	ld	a0,16(s0)
    80000914:	40f60633          	sub	a2,a2,a5
    80000918:	00000593          	li	a1,0
    8000091c:	00a78533          	add	a0,a5,a0
    80000920:	489000ef          	jal	ra,800015a8 <memset>
    80000924:	03895783          	lhu	a5,56(s2)
    80000928:	0014849b          	addiw	s1,s1,1
    8000092c:	03840413          	addi	s0,s0,56
    80000930:	fcf4e4e3          	bltu	s1,a5,800008f8 <naive_uload+0x90>
    80000934:	01893403          	ld	s0,24(s2)
    80000938:	00002697          	auipc	a3,0x2
    8000093c:	e6068693          	addi	a3,a3,-416 # 80002798 <__func__.1>
    80000940:	02800613          	li	a2,40
    80000944:	00040713          	mv	a4,s0
    80000948:	00002597          	auipc	a1,0x2
    8000094c:	da058593          	addi	a1,a1,-608 # 800026e8 <__func__.2+0x10>
    80000950:	00002517          	auipc	a0,0x2
    80000954:	dd050513          	addi	a0,a0,-560 # 80002720 <__func__.2+0x48>
    80000958:	0b8010ef          	jal	ra,80001a10 <printf>
    8000095c:	000400e7          	jalr	s0
    80000960:	02013403          	ld	s0,32(sp)
    80000964:	02813083          	ld	ra,40(sp)
    80000968:	01813483          	ld	s1,24(sp)
    8000096c:	01013903          	ld	s2,16(sp)
    80000970:	00813983          	ld	s3,8(sp)
    80000974:	00002517          	auipc	a0,0x2
    80000978:	ddc50513          	addi	a0,a0,-548 # 80002750 <__func__.2+0x78>
    8000097c:	03010113          	addi	sp,sp,48
    80000980:	0900106f          	j	80001a10 <printf>
    80000984:	00843583          	ld	a1,8(s0)
    80000988:	01043503          	ld	a0,16(s0)
    8000098c:	00078613          	mv	a2,a5
    80000990:	00b905b3          	add	a1,s2,a1
    80000994:	5e1000ef          	jal	ra,80001774 <memcpy>
    80000998:	02043783          	ld	a5,32(s0)
    8000099c:	02843603          	ld	a2,40(s0)
    800009a0:	f71ff06f          	j	80000910 <naive_uload+0xa8>
    800009a4:	00002717          	auipc	a4,0x2
    800009a8:	dc470713          	addi	a4,a4,-572 # 80002768 <__func__.2+0x90>
    800009ac:	00003697          	auipc	a3,0x3
    800009b0:	0a468693          	addi	a3,a3,164 # 80003a50 <__func__.0>
    800009b4:	01a00613          	li	a2,26
    800009b8:	00002597          	auipc	a1,0x2
    800009bc:	d3058593          	addi	a1,a1,-720 # 800026e8 <__func__.2+0x10>
    800009c0:	00001517          	auipc	a0,0x1
    800009c4:	6d850513          	addi	a0,a0,1752 # 80002098 <_etext+0x18c>
    800009c8:	048010ef          	jal	ra,80001a10 <printf>
    800009cc:	00100513          	li	a0,1
    800009d0:	4f8000ef          	jal	ra,80000ec8 <halt>

00000000800009d4 <invalid_read>:
    800009d4:	ff010113          	addi	sp,sp,-16
    800009d8:	00002697          	auipc	a3,0x2
    800009dc:	65868693          	addi	a3,a3,1624 # 80003030 <__func__.3>
    800009e0:	01700613          	li	a2,23
    800009e4:	00002597          	auipc	a1,0x2
    800009e8:	dc458593          	addi	a1,a1,-572 # 800027a8 <__func__.1+0x10>
    800009ec:	00002517          	auipc	a0,0x2
    800009f0:	dec50513          	addi	a0,a0,-532 # 800027d8 <__func__.1+0x40>
    800009f4:	00113423          	sd	ra,8(sp)
    800009f8:	018010ef          	jal	ra,80001a10 <printf>
    800009fc:	00100513          	li	a0,1
    80000a00:	4c8000ef          	jal	ra,80000ec8 <halt>

0000000080000a04 <invalid_write>:
    80000a04:	ff010113          	addi	sp,sp,-16
    80000a08:	00002697          	auipc	a3,0x2
    80000a0c:	61868693          	addi	a3,a3,1560 # 80003020 <__func__.2>
    80000a10:	01c00613          	li	a2,28
    80000a14:	00002597          	auipc	a1,0x2
    80000a18:	d9458593          	addi	a1,a1,-620 # 800027a8 <__func__.1+0x10>
    80000a1c:	00002517          	auipc	a0,0x2
    80000a20:	dbc50513          	addi	a0,a0,-580 # 800027d8 <__func__.1+0x40>
    80000a24:	00113423          	sd	ra,8(sp)
    80000a28:	7e9000ef          	jal	ra,80001a10 <printf>
    80000a2c:	00100513          	li	a0,1
    80000a30:	498000ef          	jal	ra,80000ec8 <halt>

0000000080000a34 <fs_open>:
    80000a34:	fd010113          	addi	sp,sp,-48
    80000a38:	02813023          	sd	s0,32(sp)
    80000a3c:	00913c23          	sd	s1,24(sp)
    80000a40:	01213823          	sd	s2,16(sp)
    80000a44:	01313423          	sd	s3,8(sp)
    80000a48:	02113423          	sd	ra,40(sp)
    80000a4c:	00050913          	mv	s2,a0
    80000a50:	02c3c497          	auipc	s1,0x2c3c
    80000a54:	cb048493          	addi	s1,s1,-848 # 82c3c700 <file_table+0x90>
    80000a58:	00300413          	li	s0,3
    80000a5c:	04a00993          	li	s3,74
    80000a60:	0100006f          	j	80000a70 <fs_open+0x3c>
    80000a64:	0014041b          	addiw	s0,s0,1
    80000a68:	03048493          	addi	s1,s1,48
    80000a6c:	05340863          	beq	s0,s3,80000abc <fs_open+0x88>
    80000a70:	0004b503          	ld	a0,0(s1)
    80000a74:	00090593          	mv	a1,s2
    80000a78:	309000ef          	jal	ra,80001580 <strcmp>
    80000a7c:	fe0514e3          	bnez	a0,80000a64 <fs_open+0x30>
    80000a80:	00141793          	slli	a5,s0,0x1
    80000a84:	008787b3          	add	a5,a5,s0
    80000a88:	02813083          	ld	ra,40(sp)
    80000a8c:	00040513          	mv	a0,s0
    80000a90:	00479793          	slli	a5,a5,0x4
    80000a94:	02013403          	ld	s0,32(sp)
    80000a98:	02c3c717          	auipc	a4,0x2c3c
    80000a9c:	bd870713          	addi	a4,a4,-1064 # 82c3c670 <file_table>
    80000aa0:	00f707b3          	add	a5,a4,a5
    80000aa4:	0207b423          	sd	zero,40(a5)
    80000aa8:	01813483          	ld	s1,24(sp)
    80000aac:	01013903          	ld	s2,16(sp)
    80000ab0:	00813983          	ld	s3,8(sp)
    80000ab4:	03010113          	addi	sp,sp,48
    80000ab8:	00008067          	ret
    80000abc:	00001717          	auipc	a4,0x1
    80000ac0:	59c70713          	addi	a4,a4,1436 # 80002058 <_etext+0x14c>
    80000ac4:	00003697          	auipc	a3,0x3
    80000ac8:	f9468693          	addi	a3,a3,-108 # 80003a58 <__func__.1>
    80000acc:	03300613          	li	a2,51
    80000ad0:	00002597          	auipc	a1,0x2
    80000ad4:	cd858593          	addi	a1,a1,-808 # 800027a8 <__func__.1+0x10>
    80000ad8:	00001517          	auipc	a0,0x1
    80000adc:	5c050513          	addi	a0,a0,1472 # 80002098 <_etext+0x18c>
    80000ae0:	731000ef          	jal	ra,80001a10 <printf>
    80000ae4:	00100513          	li	a0,1
    80000ae8:	3e0000ef          	jal	ra,80000ec8 <halt>

0000000080000aec <fs_read>:
    80000aec:	00151893          	slli	a7,a0,0x1
    80000af0:	00a887b3          	add	a5,a7,a0
    80000af4:	02c3c817          	auipc	a6,0x2c3c
    80000af8:	b7c80813          	addi	a6,a6,-1156 # 82c3c670 <file_table>
    80000afc:	00479793          	slli	a5,a5,0x4
    80000b00:	00f807b3          	add	a5,a6,a5
    80000b04:	0187b303          	ld	t1,24(a5)
    80000b08:	00050713          	mv	a4,a0
    80000b0c:	00058513          	mv	a0,a1
    80000b10:	00030663          	beqz	t1,80000b1c <fs_read+0x30>
    80000b14:	00000593          	li	a1,0
    80000b18:	00030067          	jr	t1
    80000b1c:	0287b583          	ld	a1,40(a5)
    80000b20:	0087b783          	ld	a5,8(a5)
    80000b24:	fe010113          	addi	sp,sp,-32
    80000b28:	00913423          	sd	s1,8(sp)
    80000b2c:	00113c23          	sd	ra,24(sp)
    80000b30:	00813823          	sd	s0,16(sp)
    80000b34:	00c586b3          	add	a3,a1,a2
    80000b38:	00060493          	mv	s1,a2
    80000b3c:	00d7f463          	bgeu	a5,a3,80000b44 <fs_read+0x58>
    80000b40:	40b784b3          	sub	s1,a5,a1
    80000b44:	00e888b3          	add	a7,a7,a4
    80000b48:	00489893          	slli	a7,a7,0x4
    80000b4c:	01180433          	add	s0,a6,a7
    80000b50:	01043783          	ld	a5,16(s0)
    80000b54:	00048613          	mv	a2,s1
    80000b58:	00f585b3          	add	a1,a1,a5
    80000b5c:	bc9ff0ef          	jal	ra,80000724 <ramdisk_read>
    80000b60:	02843783          	ld	a5,40(s0)
    80000b64:	01813083          	ld	ra,24(sp)
    80000b68:	00048513          	mv	a0,s1
    80000b6c:	009787b3          	add	a5,a5,s1
    80000b70:	02f43423          	sd	a5,40(s0)
    80000b74:	01013403          	ld	s0,16(sp)
    80000b78:	00813483          	ld	s1,8(sp)
    80000b7c:	02010113          	addi	sp,sp,32
    80000b80:	00008067          	ret

0000000080000b84 <fs_write>:
    80000b84:	fe010113          	addi	sp,sp,-32
    80000b88:	00050793          	mv	a5,a0
    80000b8c:	00113c23          	sd	ra,24(sp)
    80000b90:	00813823          	sd	s0,16(sp)
    80000b94:	00913423          	sd	s1,8(sp)
    80000b98:	00400713          	li	a4,4
    80000b9c:	00058513          	mv	a0,a1
    80000ba0:	08e78263          	beq	a5,a4,80000c24 <fs_write+0xa0>
    80000ba4:	00179713          	slli	a4,a5,0x1
    80000ba8:	00f707b3          	add	a5,a4,a5
    80000bac:	00479793          	slli	a5,a5,0x4
    80000bb0:	02c3c417          	auipc	s0,0x2c3c
    80000bb4:	ac040413          	addi	s0,s0,-1344 # 82c3c670 <file_table>
    80000bb8:	00f40433          	add	s0,s0,a5
    80000bbc:	02043783          	ld	a5,32(s0)
    80000bc0:	00078e63          	beqz	a5,80000bdc <fs_write+0x58>
    80000bc4:	01013403          	ld	s0,16(sp)
    80000bc8:	01813083          	ld	ra,24(sp)
    80000bcc:	00813483          	ld	s1,8(sp)
    80000bd0:	00000593          	li	a1,0
    80000bd4:	02010113          	addi	sp,sp,32
    80000bd8:	00078067          	jr	a5
    80000bdc:	02843783          	ld	a5,40(s0)
    80000be0:	02c3b717          	auipc	a4,0x2c3b
    80000be4:	28873703          	ld	a4,648(a4) # 82c3be68 <program_break>
    80000be8:	00060493          	mv	s1,a2
    80000bec:	00c786b3          	add	a3,a5,a2
    80000bf0:	06d76463          	bltu	a4,a3,80000c58 <fs_write+0xd4>
    80000bf4:	01043583          	ld	a1,16(s0)
    80000bf8:	00b785b3          	add	a1,a5,a1
    80000bfc:	badff0ef          	jal	ra,800007a8 <ramdisk_write>
    80000c00:	02843783          	ld	a5,40(s0)
    80000c04:	01813083          	ld	ra,24(sp)
    80000c08:	00048513          	mv	a0,s1
    80000c0c:	009787b3          	add	a5,a5,s1
    80000c10:	02f43423          	sd	a5,40(s0)
    80000c14:	01013403          	ld	s0,16(sp)
    80000c18:	00813483          	ld	s1,8(sp)
    80000c1c:	02010113          	addi	sp,sp,32
    80000c20:	00008067          	ret
    80000c24:	02c3c417          	auipc	s0,0x2c3c
    80000c28:	a4c40413          	addi	s0,s0,-1460 # 82c3c670 <file_table>
    80000c2c:	0e043783          	ld	a5,224(s0)
    80000c30:	0e843583          	ld	a1,232(s0)
    80000c34:	000780e7          	jalr	a5
    80000c38:	0e843783          	ld	a5,232(s0)
    80000c3c:	01813083          	ld	ra,24(sp)
    80000c40:	00813483          	ld	s1,8(sp)
    80000c44:	00a787b3          	add	a5,a5,a0
    80000c48:	0ef43423          	sd	a5,232(s0)
    80000c4c:	01013403          	ld	s0,16(sp)
    80000c50:	02010113          	addi	sp,sp,32
    80000c54:	00008067          	ret
    80000c58:	00002717          	auipc	a4,0x2
    80000c5c:	bc870713          	addi	a4,a4,-1080 # 80002820 <__func__.1+0x88>
    80000c60:	00002697          	auipc	a3,0x2
    80000c64:	3b068693          	addi	a3,a3,944 # 80003010 <__func__.0>
    80000c68:	04b00613          	li	a2,75
    80000c6c:	00002597          	auipc	a1,0x2
    80000c70:	b3c58593          	addi	a1,a1,-1220 # 800027a8 <__func__.1+0x10>
    80000c74:	00001517          	auipc	a0,0x1
    80000c78:	42450513          	addi	a0,a0,1060 # 80002098 <_etext+0x18c>
    80000c7c:	595000ef          	jal	ra,80001a10 <printf>
    80000c80:	00100513          	li	a0,1
    80000c84:	244000ef          	jal	ra,80000ec8 <halt>

0000000080000c88 <fs_lseek>:
    80000c88:	02061463          	bnez	a2,80000cb0 <fs_lseek+0x28>
    80000c8c:	00151793          	slli	a5,a0,0x1
    80000c90:	00a787b3          	add	a5,a5,a0
    80000c94:	02c3c717          	auipc	a4,0x2c3c
    80000c98:	9dc70713          	addi	a4,a4,-1572 # 82c3c670 <file_table>
    80000c9c:	00479793          	slli	a5,a5,0x4
    80000ca0:	00f707b3          	add	a5,a4,a5
    80000ca4:	02b7b423          	sd	a1,40(a5)
    80000ca8:	00058513          	mv	a0,a1
    80000cac:	00008067          	ret
    80000cb0:	00100793          	li	a5,1
    80000cb4:	02f61663          	bne	a2,a5,80000ce0 <fs_lseek+0x58>
    80000cb8:	00151793          	slli	a5,a0,0x1
    80000cbc:	00a787b3          	add	a5,a5,a0
    80000cc0:	02c3c717          	auipc	a4,0x2c3c
    80000cc4:	9b070713          	addi	a4,a4,-1616 # 82c3c670 <file_table>
    80000cc8:	00479793          	slli	a5,a5,0x4
    80000ccc:	00f707b3          	add	a5,a4,a5
    80000cd0:	0287b703          	ld	a4,40(a5)
    80000cd4:	00e58533          	add	a0,a1,a4
    80000cd8:	02a7b423          	sd	a0,40(a5)
    80000cdc:	00008067          	ret
    80000ce0:	00200793          	li	a5,2
    80000ce4:	02f61663          	bne	a2,a5,80000d10 <fs_lseek+0x88>
    80000ce8:	00151793          	slli	a5,a0,0x1
    80000cec:	00a787b3          	add	a5,a5,a0
    80000cf0:	02c3c717          	auipc	a4,0x2c3c
    80000cf4:	98070713          	addi	a4,a4,-1664 # 82c3c670 <file_table>
    80000cf8:	00479793          	slli	a5,a5,0x4
    80000cfc:	00f707b3          	add	a5,a4,a5
    80000d00:	0087b703          	ld	a4,8(a5)
    80000d04:	00e58533          	add	a0,a1,a4
    80000d08:	02a7b423          	sd	a0,40(a5)
    80000d0c:	00008067          	ret
    80000d10:	03000793          	li	a5,48
    80000d14:	02f50533          	mul	a0,a0,a5
    80000d18:	02c3c797          	auipc	a5,0x2c3c
    80000d1c:	95878793          	addi	a5,a5,-1704 # 82c3c670 <file_table>
    80000d20:	00a787b3          	add	a5,a5,a0
    80000d24:	0287b503          	ld	a0,40(a5)
    80000d28:	00008067          	ret

0000000080000d2c <fs_close>:
    80000d2c:	00000513          	li	a0,0
    80000d30:	00008067          	ret

0000000080000d34 <get_file_size>:
    80000d34:	00151793          	slli	a5,a0,0x1
    80000d38:	00a787b3          	add	a5,a5,a0
    80000d3c:	02c3c717          	auipc	a4,0x2c3c
    80000d40:	93470713          	addi	a4,a4,-1740 # 82c3c670 <file_table>
    80000d44:	00479793          	slli	a5,a5,0x4
    80000d48:	00f707b3          	add	a5,a4,a5
    80000d4c:	0087b503          	ld	a0,8(a5)
    80000d50:	00008067          	ret

0000000080000d54 <init_fs>:
    80000d54:	0002e7b7          	lui	a5,0x2e
    80000d58:	6a078793          	addi	a5,a5,1696 # 2e6a0 <_entry_offset+0x2e6a0>
    80000d5c:	02c3c717          	auipc	a4,0x2c3c
    80000d60:	9cf73e23          	sd	a5,-1572(a4) # 82c3c738 <file_table+0xc8>
    80000d64:	00008067          	ret

0000000080000d68 <do_event>:
    80000d68:	00052703          	lw	a4,0(a0)
    80000d6c:	ff010113          	addi	sp,sp,-16
    80000d70:	00813023          	sd	s0,0(sp)
    80000d74:	00113423          	sd	ra,8(sp)
    80000d78:	00200793          	li	a5,2
    80000d7c:	00058413          	mv	s0,a1
    80000d80:	02f70e63          	beq	a4,a5,80000dbc <do_event+0x54>
    80000d84:	00500793          	li	a5,5
    80000d88:	06f70863          	beq	a4,a5,80000df8 <do_event+0x90>
    80000d8c:	00100793          	li	a5,1
    80000d90:	04f70463          	beq	a4,a5,80000dd8 <do_event+0x70>
    80000d94:	00002697          	auipc	a3,0x2
    80000d98:	37c68693          	addi	a3,a3,892 # 80003110 <__func__.0>
    80000d9c:	01000613          	li	a2,16
    80000da0:	00002597          	auipc	a1,0x2
    80000da4:	2b058593          	addi	a1,a1,688 # 80003050 <__func__.3+0x20>
    80000da8:	00002517          	auipc	a0,0x2
    80000dac:	2d850513          	addi	a0,a0,728 # 80003080 <__func__.3+0x50>
    80000db0:	461000ef          	jal	ra,80001a10 <printf>
    80000db4:	00100513          	li	a0,1
    80000db8:	110000ef          	jal	ra,80000ec8 <halt>
    80000dbc:	00058513          	mv	a0,a1
    80000dc0:	b60ff0ef          	jal	ra,80000120 <do_syscall>
    80000dc4:	00813083          	ld	ra,8(sp)
    80000dc8:	00040513          	mv	a0,s0
    80000dcc:	00013403          	ld	s0,0(sp)
    80000dd0:	01010113          	addi	sp,sp,16
    80000dd4:	00008067          	ret
    80000dd8:	00002517          	auipc	a0,0x2
    80000ddc:	26850513          	addi	a0,a0,616 # 80003040 <__func__.3+0x10>
    80000de0:	431000ef          	jal	ra,80001a10 <printf>
    80000de4:	00813083          	ld	ra,8(sp)
    80000de8:	00040513          	mv	a0,s0
    80000dec:	00013403          	ld	s0,0(sp)
    80000df0:	01010113          	addi	sp,sp,16
    80000df4:	00008067          	ret
    80000df8:	20004737          	lui	a4,0x20004
    80000dfc:	00073783          	ld	a5,0(a4) # 20004000 <_entry_offset+0x20004000>
    80000e00:	001006b7          	lui	a3,0x100
    80000e04:	00002517          	auipc	a0,0x2
    80000e08:	24450513          	addi	a0,a0,580 # 80003048 <__func__.3+0x18>
    80000e0c:	00d787b3          	add	a5,a5,a3
    80000e10:	00f73023          	sd	a5,0(a4)
    80000e14:	3fd000ef          	jal	ra,80001a10 <printf>
    80000e18:	00813083          	ld	ra,8(sp)
    80000e1c:	00040513          	mv	a0,s0
    80000e20:	00013403          	ld	s0,0(sp)
    80000e24:	01010113          	addi	sp,sp,16
    80000e28:	00008067          	ret

0000000080000e2c <init_irq>:
    80000e2c:	ff010113          	addi	sp,sp,-16
    80000e30:	00002697          	auipc	a3,0x2
    80000e34:	2f068693          	addi	a3,a3,752 # 80003120 <__func__.1>
    80000e38:	01700613          	li	a2,23
    80000e3c:	00002597          	auipc	a1,0x2
    80000e40:	21458593          	addi	a1,a1,532 # 80003050 <__func__.3+0x20>
    80000e44:	00002517          	auipc	a0,0x2
    80000e48:	28450513          	addi	a0,a0,644 # 800030c8 <__func__.3+0x98>
    80000e4c:	00113423          	sd	ra,8(sp)
    80000e50:	3c1000ef          	jal	ra,80001a10 <printf>
    80000e54:	00813083          	ld	ra,8(sp)
    80000e58:	00000517          	auipc	a0,0x0
    80000e5c:	f1050513          	addi	a0,a0,-240 # 80000d68 <do_event>
    80000e60:	01010113          	addi	sp,sp,16
    80000e64:	5000006f          	j	80001364 <cte_init>

0000000080000e68 <init_proc>:
    80000e68:	ff010113          	addi	sp,sp,-16
    80000e6c:	00003597          	auipc	a1,0x3
    80000e70:	83c58593          	addi	a1,a1,-1988 # 800036a8 <logo+0x57f>
    80000e74:	02f12797          	auipc	a5,0x2f12
    80000e78:	18c78793          	addi	a5,a5,396 # 82f13000 <pcb_boot>
    80000e7c:	00003697          	auipc	a3,0x3
    80000e80:	8ec68693          	addi	a3,a3,-1812 # 80003768 <__func__.0>
    80000e84:	01b00613          	li	a2,27
    80000e88:	00003517          	auipc	a0,0x3
    80000e8c:	8a850513          	addi	a0,a0,-1880 # 80003730 <logo+0x607>
    80000e90:	00113423          	sd	ra,8(sp)
    80000e94:	02f22717          	auipc	a4,0x2f22
    80000e98:	16f73a23          	sd	a5,372(a4) # 82f23008 <current>
    80000e9c:	375000ef          	jal	ra,80001a10 <printf>
    80000ea0:	00813083          	ld	ra,8(sp)
    80000ea4:	00002597          	auipc	a1,0x2
    80000ea8:	9ec58593          	addi	a1,a1,-1556 # 80002890 <__func__.1+0xf8>
    80000eac:	00000513          	li	a0,0
    80000eb0:	01010113          	addi	sp,sp,16
    80000eb4:	9b5ff06f          	j	80000868 <naive_uload>

0000000080000eb8 <putch>:
    80000eb8:	00500793          	li	a5,5
    80000ebc:	01d79793          	slli	a5,a5,0x1d
    80000ec0:	3ea78c23          	sb	a0,1016(a5)
    80000ec4:	00008067          	ret

0000000080000ec8 <halt>:
    80000ec8:	00050513          	mv	a0,a0
    80000ecc:	00100073          	ebreak
    80000ed0:	0000006f          	j	80000ed0 <halt+0x8>

0000000080000ed4 <_trm_init>:
    80000ed4:	ff010113          	addi	sp,sp,-16
    80000ed8:	00003517          	auipc	a0,0x3
    80000edc:	b8850513          	addi	a0,a0,-1144 # 80003a60 <mainargs>
    80000ee0:	00113423          	sd	ra,8(sp)
    80000ee4:	92cff0ef          	jal	ra,80000010 <main>
    80000ee8:	00050513          	mv	a0,a0
    80000eec:	00100073          	ebreak
    80000ef0:	0000006f          	j	80000ef0 <_trm_init+0x1c>

0000000080000ef4 <__am_timer_config>:
    80000ef4:	00100793          	li	a5,1
    80000ef8:	00f50023          	sb	a5,0(a0)
    80000efc:	00f500a3          	sb	a5,1(a0)
    80000f00:	00008067          	ret

0000000080000f04 <__am_input_config>:
    80000f04:	00100793          	li	a5,1
    80000f08:	00f50023          	sb	a5,0(a0)
    80000f0c:	00008067          	ret

0000000080000f10 <__am_uart_config>:
    80000f10:	00050023          	sb	zero,0(a0)
    80000f14:	00008067          	ret

0000000080000f18 <__am_net_config>:
    80000f18:	00050023          	sb	zero,0(a0)
    80000f1c:	00008067          	ret

0000000080000f20 <fail>:
    80000f20:	ff010113          	addi	sp,sp,-16
    80000f24:	00813023          	sd	s0,0(sp)
    80000f28:	00113423          	sd	ra,8(sp)
    80000f2c:	00003417          	auipc	s0,0x3
    80000f30:	84c40413          	addi	s0,s0,-1972 # 80003778 <__func__.0+0x10>
    80000f34:	04100513          	li	a0,65
    80000f38:	00140413          	addi	s0,s0,1
    80000f3c:	f7dff0ef          	jal	ra,80000eb8 <putch>
    80000f40:	00044503          	lbu	a0,0(s0)
    80000f44:	fe051ae3          	bnez	a0,80000f38 <fail+0x18>
    80000f48:	00003417          	auipc	s0,0x3
    80000f4c:	84040413          	addi	s0,s0,-1984 # 80003788 <__func__.0+0x20>
    80000f50:	06100513          	li	a0,97
    80000f54:	00140413          	addi	s0,s0,1
    80000f58:	f61ff0ef          	jal	ra,80000eb8 <putch>
    80000f5c:	00044503          	lbu	a0,0(s0)
    80000f60:	fe051ae3          	bnez	a0,80000f54 <fail+0x34>
    80000f64:	00003417          	auipc	s0,0x3
    80000f68:	84440413          	addi	s0,s0,-1980 # 800037a8 <__func__.0+0x40>
    80000f6c:	02000513          	li	a0,32
    80000f70:	00140413          	addi	s0,s0,1
    80000f74:	f45ff0ef          	jal	ra,80000eb8 <putch>
    80000f78:	00044503          	lbu	a0,0(s0)
    80000f7c:	fe051ae3          	bnez	a0,80000f70 <fail+0x50>
    80000f80:	00100513          	li	a0,1
    80000f84:	f45ff0ef          	jal	ra,80000ec8 <halt>

0000000080000f88 <ioe_init>:
    80000f88:	ff010113          	addi	sp,sp,-16
    80000f8c:	00113423          	sd	ra,8(sp)
    80000f90:	02c3c797          	auipc	a5,0x2c3c
    80000f94:	4d078793          	addi	a5,a5,1232 # 82c3d460 <lut>
    80000f98:	02c3d697          	auipc	a3,0x2c3d
    80000f9c:	8c868693          	addi	a3,a3,-1848 # 82c3d860 <fb>
    80000fa0:	00000617          	auipc	a2,0x0
    80000fa4:	f8060613          	addi	a2,a2,-128 # 80000f20 <fail>
    80000fa8:	00c0006f          	j	80000fb4 <ioe_init+0x2c>
    80000fac:	00878793          	addi	a5,a5,8
    80000fb0:	00d78c63          	beq	a5,a3,80000fc8 <ioe_init+0x40>
    80000fb4:	0007b703          	ld	a4,0(a5)
    80000fb8:	fe071ae3          	bnez	a4,80000fac <ioe_init+0x24>
    80000fbc:	00c7b023          	sd	a2,0(a5)
    80000fc0:	00878793          	addi	a5,a5,8
    80000fc4:	fed798e3          	bne	a5,a3,80000fb4 <ioe_init+0x2c>
    80000fc8:	0e0000ef          	jal	ra,800010a8 <__am_gpu_init>
    80000fcc:	030000ef          	jal	ra,80000ffc <__am_timer_init>
    80000fd0:	00813083          	ld	ra,8(sp)
    80000fd4:	00100513          	li	a0,1
    80000fd8:	01010113          	addi	sp,sp,16
    80000fdc:	00008067          	ret

0000000080000fe0 <ioe_read>:
    80000fe0:	00351513          	slli	a0,a0,0x3
    80000fe4:	02c3c797          	auipc	a5,0x2c3c
    80000fe8:	47c78793          	addi	a5,a5,1148 # 82c3d460 <lut>
    80000fec:	00a787b3          	add	a5,a5,a0
    80000ff0:	0007b783          	ld	a5,0(a5)
    80000ff4:	00058513          	mv	a0,a1
    80000ff8:	00078067          	jr	a5

0000000080000ffc <__am_timer_init>:
    80000ffc:	00500713          	li	a4,5
    80001000:	01d71713          	slli	a4,a4,0x1d
    80001004:	04c72783          	lw	a5,76(a4)
    80001008:	04872703          	lw	a4,72(a4)
    8000100c:	02079793          	slli	a5,a5,0x20
    80001010:	02071713          	slli	a4,a4,0x20
    80001014:	02075713          	srli	a4,a4,0x20
    80001018:	00e7e7b3          	or	a5,a5,a4
    8000101c:	02f22717          	auipc	a4,0x2f22
    80001020:	fef73a23          	sd	a5,-12(a4) # 82f23010 <boot_time>
    80001024:	00008067          	ret

0000000080001028 <__am_timer_uptime>:
    80001028:	00500713          	li	a4,5
    8000102c:	01d71713          	slli	a4,a4,0x1d
    80001030:	04c72783          	lw	a5,76(a4)
    80001034:	04872703          	lw	a4,72(a4)
    80001038:	02079793          	slli	a5,a5,0x20
    8000103c:	02071713          	slli	a4,a4,0x20
    80001040:	02075713          	srli	a4,a4,0x20
    80001044:	00e7e7b3          	or	a5,a5,a4
    80001048:	02f22717          	auipc	a4,0x2f22
    8000104c:	fc873703          	ld	a4,-56(a4) # 82f23010 <boot_time>
    80001050:	40e787b3          	sub	a5,a5,a4
    80001054:	00f53023          	sd	a5,0(a0)
    80001058:	00008067          	ret

000000008000105c <__am_timer_rtc>:
    8000105c:	76c00793          	li	a5,1900
    80001060:	00052a23          	sw	zero,20(a0)
    80001064:	00052823          	sw	zero,16(a0)
    80001068:	00052623          	sw	zero,12(a0)
    8000106c:	00052423          	sw	zero,8(a0)
    80001070:	00052223          	sw	zero,4(a0)
    80001074:	00f52023          	sw	a5,0(a0)
    80001078:	00008067          	ret

000000008000107c <__am_input_keybrd>:
    8000107c:	00500793          	li	a5,5
    80001080:	01d79793          	slli	a5,a5,0x1d
    80001084:	0607a783          	lw	a5,96(a5)
    80001088:	ffff86b7          	lui	a3,0xffff8
    8000108c:	fff68693          	addi	a3,a3,-1 # ffffffffffff7fff <_end+0xffffffff7d0cbfff>
    80001090:	00f7d71b          	srliw	a4,a5,0xf
    80001094:	00177713          	andi	a4,a4,1
    80001098:	00d7f7b3          	and	a5,a5,a3
    8000109c:	00e50023          	sb	a4,0(a0)
    800010a0:	00f52223          	sw	a5,4(a0)
    800010a4:	00008067          	ret

00000000800010a8 <__am_gpu_init>:
    800010a8:	00008067          	ret

00000000800010ac <__am_gpu_config>:
    800010ac:	00002797          	auipc	a5,0x2
    800010b0:	74c78793          	addi	a5,a5,1868 # 800037f8 <__func__.0+0x90>
    800010b4:	0007a603          	lw	a2,0(a5)
    800010b8:	0047a683          	lw	a3,4(a5)
    800010bc:	0087a703          	lw	a4,8(a5)
    800010c0:	00c7a783          	lw	a5,12(a5)
    800010c4:	00c52023          	sw	a2,0(a0)
    800010c8:	00d52223          	sw	a3,4(a0)
    800010cc:	00e52423          	sw	a4,8(a0)
    800010d0:	00f52623          	sw	a5,12(a0)
    800010d4:	00008067          	ret

00000000800010d8 <__am_gpu_fbdraw>:
    800010d8:	00452e03          	lw	t3,4(a0)
    800010dc:	01452603          	lw	a2,20(a0)
    800010e0:	19000793          	li	a5,400
    800010e4:	03c7873b          	mulw	a4,a5,t3
    800010e8:	00052683          	lw	a3,0(a0)
    800010ec:	01052803          	lw	a6,16(a0)
    800010f0:	16c05663          	blez	a2,8000125c <__am_gpu_fbdraw+0x184>
    800010f4:	02c3c317          	auipc	t1,0x2c3c
    800010f8:	76c33303          	ld	t1,1900(t1) # 82c3d860 <fb>
    800010fc:	17005063          	blez	a6,8000125c <__am_gpu_fbdraw+0x184>
    80001100:	0018529b          	srliw	t0,a6,0x1
    80001104:	fd010113          	addi	sp,sp,-48
    80001108:	fff2829b          	addiw	t0,t0,-1
    8000110c:	00853583          	ld	a1,8(a0)
    80001110:	02c78fbb          	mulw	t6,a5,a2
    80001114:	02913023          	sd	s1,32(sp)
    80001118:	02029793          	slli	a5,t0,0x20
    8000111c:	fff8049b          	addiw	s1,a6,-1
    80001120:	00d708b3          	add	a7,a4,a3
    80001124:	0004839b          	sext.w	t2,s1
    80001128:	01d7d293          	srli	t0,a5,0x1d
    8000112c:	02813423          	sd	s0,40(sp)
    80001130:	00289893          	slli	a7,a7,0x2
    80001134:	ffe87413          	andi	s0,a6,-2
    80001138:	00ef8fbb          	addw	t6,t6,a4
    8000113c:	00800793          	li	a5,8
    80001140:	02049493          	slli	s1,s1,0x20
    80001144:	01213c23          	sd	s2,24(sp)
    80001148:	00080f1b          	sext.w	t5,a6
    8000114c:	01313823          	sd	s3,16(sp)
    80001150:	01413423          	sd	s4,8(sp)
    80001154:	011308b3          	add	a7,t1,a7
    80001158:	00d70e3b          	addw	t3,a4,a3
    8000115c:	00df8fbb          	addw	t6,t6,a3
    80001160:	00040813          	mv	a6,s0
    80001164:	00000e93          	li	t4,0
    80001168:	0077b3b3          	sltu	t2,a5,t2
    8000116c:	00828293          	addi	t0,t0,8
    80001170:	0204d493          	srli	s1,s1,0x20
    80001174:	00458913          	addi	s2,a1,4
    80001178:	002e9613          	slli	a2,t4,0x2
    8000117c:	00460713          	addi	a4,a2,4
    80001180:	00e58733          	add	a4,a1,a4
    80001184:	41170733          	sub	a4,a4,a7
    80001188:	00e03733          	snez	a4,a4
    8000118c:	00777733          	and	a4,a4,t2
    80001190:	000e079b          	sext.w	a5,t3
    80001194:	00c58633          	add	a2,a1,a2
    80001198:	08070c63          	beqz	a4,80001230 <__am_gpu_fbdraw+0x158>
    8000119c:	01166a33          	or	s4,a2,a7
    800011a0:	007a7a13          	andi	s4,s4,7
    800011a4:	00060713          	mv	a4,a2
    800011a8:	005609b3          	add	s3,a2,t0
    800011ac:	00088693          	mv	a3,a7
    800011b0:	080a1063          	bnez	s4,80001230 <__am_gpu_fbdraw+0x158>
    800011b4:	00073603          	ld	a2,0(a4)
    800011b8:	00870713          	addi	a4,a4,8
    800011bc:	00868693          	addi	a3,a3,8
    800011c0:	fec6bc23          	sd	a2,-8(a3)
    800011c4:	ff3718e3          	bne	a4,s3,800011b4 <__am_gpu_fbdraw+0xdc>
    800011c8:	010e873b          	addw	a4,t4,a6
    800011cc:	028f0063          	beq	t5,s0,800011ec <__am_gpu_fbdraw+0x114>
    800011d0:	00271713          	slli	a4,a4,0x2
    800011d4:	00e58733          	add	a4,a1,a4
    800011d8:	00072703          	lw	a4,0(a4)
    800011dc:	010787bb          	addw	a5,a5,a6
    800011e0:	00279793          	slli	a5,a5,0x2
    800011e4:	00f307b3          	add	a5,t1,a5
    800011e8:	00e7a023          	sw	a4,0(a5)
    800011ec:	190e0e1b          	addiw	t3,t3,400
    800011f0:	01ee8ebb          	addw	t4,t4,t5
    800011f4:	64088893          	addi	a7,a7,1600
    800011f8:	f9fe10e3          	bne	t3,t6,80001178 <__am_gpu_fbdraw+0xa0>
    800011fc:	01854783          	lbu	a5,24(a0)
    80001200:	00078a63          	beqz	a5,80001214 <__am_gpu_fbdraw+0x13c>
    80001204:	00500793          	li	a5,5
    80001208:	01d79793          	slli	a5,a5,0x1d
    8000120c:	00100713          	li	a4,1
    80001210:	10e7a223          	sw	a4,260(a5)
    80001214:	02813403          	ld	s0,40(sp)
    80001218:	02013483          	ld	s1,32(sp)
    8000121c:	01813903          	ld	s2,24(sp)
    80001220:	01013983          	ld	s3,16(sp)
    80001224:	00813a03          	ld	s4,8(sp)
    80001228:	03010113          	addi	sp,sp,48
    8000122c:	00008067          	ret
    80001230:	01d48733          	add	a4,s1,t4
    80001234:	00271713          	slli	a4,a4,0x2
    80001238:	00060793          	mv	a5,a2
    8000123c:	01270633          	add	a2,a4,s2
    80001240:	00088713          	mv	a4,a7
    80001244:	0007a683          	lw	a3,0(a5)
    80001248:	00478793          	addi	a5,a5,4
    8000124c:	00470713          	addi	a4,a4,4
    80001250:	fed72e23          	sw	a3,-4(a4)
    80001254:	fef618e3          	bne	a2,a5,80001244 <__am_gpu_fbdraw+0x16c>
    80001258:	f95ff06f          	j	800011ec <__am_gpu_fbdraw+0x114>
    8000125c:	01854783          	lbu	a5,24(a0)
    80001260:	00078c63          	beqz	a5,80001278 <__am_gpu_fbdraw+0x1a0>
    80001264:	00500793          	li	a5,5
    80001268:	01d79793          	slli	a5,a5,0x1d
    8000126c:	00100713          	li	a4,1
    80001270:	10e7a223          	sw	a4,260(a5)
    80001274:	00008067          	ret
    80001278:	00008067          	ret

000000008000127c <__am_gpu_status>:
    8000127c:	00100793          	li	a5,1
    80001280:	00f50023          	sb	a5,0(a0)
    80001284:	00008067          	ret

0000000080001288 <__am_irq_handle>:
    80001288:	02f22717          	auipc	a4,0x2f22
    8000128c:	d9073703          	ld	a4,-624(a4) # 82f23018 <user_handler>
    80001290:	00050593          	mv	a1,a0
    80001294:	0a070663          	beqz	a4,80001340 <__am_irq_handle+0xb8>
    80001298:	10053683          	ld	a3,256(a0)
    8000129c:	fb010113          	addi	sp,sp,-80
    800012a0:	04113423          	sd	ra,72(sp)
    800012a4:	02013023          	sd	zero,32(sp)
    800012a8:	02013423          	sd	zero,40(sp)
    800012ac:	02013823          	sd	zero,48(sp)
    800012b0:	02013c23          	sd	zero,56(sp)
    800012b4:	00b00793          	li	a5,11
    800012b8:	06f68063          	beq	a3,a5,80001318 <__am_irq_handle+0x90>
    800012bc:	fff00793          	li	a5,-1
    800012c0:	03f79793          	slli	a5,a5,0x3f
    800012c4:	00778793          	addi	a5,a5,7
    800012c8:	04f69263          	bne	a3,a5,8000130c <__am_irq_handle+0x84>
    800012cc:	00500793          	li	a5,5
    800012d0:	02f12023          	sw	a5,32(sp)
    800012d4:	02013783          	ld	a5,32(sp)
    800012d8:	00010513          	mv	a0,sp
    800012dc:	00f13023          	sd	a5,0(sp)
    800012e0:	02813783          	ld	a5,40(sp)
    800012e4:	00f13423          	sd	a5,8(sp)
    800012e8:	03013783          	ld	a5,48(sp)
    800012ec:	00f13823          	sd	a5,16(sp)
    800012f0:	03813783          	ld	a5,56(sp)
    800012f4:	00f13c23          	sd	a5,24(sp)
    800012f8:	000700e7          	jalr	a4
    800012fc:	04050463          	beqz	a0,80001344 <__am_irq_handle+0xbc>
    80001300:	04813083          	ld	ra,72(sp)
    80001304:	05010113          	addi	sp,sp,80
    80001308:	00008067          	ret
    8000130c:	00400793          	li	a5,4
    80001310:	02f12023          	sw	a5,32(sp)
    80001314:	fc1ff06f          	j	800012d4 <__am_irq_handle+0x4c>
    80001318:	08853783          	ld	a5,136(a0)
    8000131c:	11053683          	ld	a3,272(a0)
    80001320:	10053023          	sd	zero,256(a0)
    80001324:	00178793          	addi	a5,a5,1
    80001328:	00f037b3          	snez	a5,a5
    8000132c:	00178793          	addi	a5,a5,1
    80001330:	00468693          	addi	a3,a3,4
    80001334:	02f12023          	sw	a5,32(sp)
    80001338:	10d53823          	sd	a3,272(a0)
    8000133c:	f99ff06f          	j	800012d4 <__am_irq_handle+0x4c>
    80001340:	00008067          	ret
    80001344:	01c00613          	li	a2,28
    80001348:	00002597          	auipc	a1,0x2
    8000134c:	4c058593          	addi	a1,a1,1216 # 80003808 <__func__.0+0xa0>
    80001350:	00002517          	auipc	a0,0x2
    80001354:	50050513          	addi	a0,a0,1280 # 80003850 <__func__.0+0xe8>
    80001358:	6b8000ef          	jal	ra,80001a10 <printf>
    8000135c:	00100513          	li	a0,1
    80001360:	b69ff0ef          	jal	ra,80000ec8 <halt>

0000000080001364 <cte_init>:
    80001364:	00050793          	mv	a5,a0
    80001368:	00000717          	auipc	a4,0x0
    8000136c:	02870713          	addi	a4,a4,40 # 80001390 <__am_asm_trap>
    80001370:	30571073          	csrw	mtvec,a4
    80001374:	00100513          	li	a0,1
    80001378:	02f22717          	auipc	a4,0x2f22
    8000137c:	caf73023          	sd	a5,-864(a4) # 82f23018 <user_handler>
    80001380:	00008067          	ret

0000000080001384 <yield>:
    80001384:	fff00893          	li	a7,-1
    80001388:	00000073          	ecall
    8000138c:	00008067          	ret

0000000080001390 <__am_asm_trap>:
    80001390:	ee810113          	addi	sp,sp,-280
    80001394:	00113423          	sd	ra,8(sp)
    80001398:	00313c23          	sd	gp,24(sp)
    8000139c:	02413023          	sd	tp,32(sp)
    800013a0:	02513423          	sd	t0,40(sp)
    800013a4:	02613823          	sd	t1,48(sp)
    800013a8:	02713c23          	sd	t2,56(sp)
    800013ac:	04813023          	sd	s0,64(sp)
    800013b0:	04913423          	sd	s1,72(sp)
    800013b4:	04a13823          	sd	a0,80(sp)
    800013b8:	04b13c23          	sd	a1,88(sp)
    800013bc:	06c13023          	sd	a2,96(sp)
    800013c0:	06d13423          	sd	a3,104(sp)
    800013c4:	06e13823          	sd	a4,112(sp)
    800013c8:	06f13c23          	sd	a5,120(sp)
    800013cc:	09013023          	sd	a6,128(sp)
    800013d0:	09113423          	sd	a7,136(sp)
    800013d4:	09213823          	sd	s2,144(sp)
    800013d8:	09313c23          	sd	s3,152(sp)
    800013dc:	0b413023          	sd	s4,160(sp)
    800013e0:	0b513423          	sd	s5,168(sp)
    800013e4:	0b613823          	sd	s6,176(sp)
    800013e8:	0b713c23          	sd	s7,184(sp)
    800013ec:	0d813023          	sd	s8,192(sp)
    800013f0:	0d913423          	sd	s9,200(sp)
    800013f4:	0da13823          	sd	s10,208(sp)
    800013f8:	0db13c23          	sd	s11,216(sp)
    800013fc:	0fc13023          	sd	t3,224(sp)
    80001400:	0fd13423          	sd	t4,232(sp)
    80001404:	0fe13823          	sd	t5,240(sp)
    80001408:	0ff13c23          	sd	t6,248(sp)
    8000140c:	00010293          	mv	t0,sp
    80001410:	11828293          	addi	t0,t0,280
    80001414:	00513823          	sd	t0,16(sp)
    80001418:	342022f3          	csrr	t0,mcause
    8000141c:	30002373          	csrr	t1,mstatus
    80001420:	341023f3          	csrr	t2,mepc
    80001424:	10513023          	sd	t0,256(sp)
    80001428:	10613423          	sd	t1,264(sp)
    8000142c:	10713823          	sd	t2,272(sp)
    80001430:	00010513          	mv	a0,sp
    80001434:	e55ff0ef          	jal	ra,80001288 <__am_irq_handle>
    80001438:	10813303          	ld	t1,264(sp)
    8000143c:	11013383          	ld	t2,272(sp)
    80001440:	30031073          	csrw	mstatus,t1
    80001444:	34139073          	csrw	mepc,t2
    80001448:	00813083          	ld	ra,8(sp)
    8000144c:	01813183          	ld	gp,24(sp)
    80001450:	02013203          	ld	tp,32(sp)
    80001454:	02813283          	ld	t0,40(sp)
    80001458:	03013303          	ld	t1,48(sp)
    8000145c:	03813383          	ld	t2,56(sp)
    80001460:	04013403          	ld	s0,64(sp)
    80001464:	04813483          	ld	s1,72(sp)
    80001468:	05013503          	ld	a0,80(sp)
    8000146c:	05813583          	ld	a1,88(sp)
    80001470:	06013603          	ld	a2,96(sp)
    80001474:	06813683          	ld	a3,104(sp)
    80001478:	07013703          	ld	a4,112(sp)
    8000147c:	07813783          	ld	a5,120(sp)
    80001480:	08013803          	ld	a6,128(sp)
    80001484:	08813883          	ld	a7,136(sp)
    80001488:	09013903          	ld	s2,144(sp)
    8000148c:	09813983          	ld	s3,152(sp)
    80001490:	0a013a03          	ld	s4,160(sp)
    80001494:	0a813a83          	ld	s5,168(sp)
    80001498:	0b013b03          	ld	s6,176(sp)
    8000149c:	0b813b83          	ld	s7,184(sp)
    800014a0:	0c013c03          	ld	s8,192(sp)
    800014a4:	0c813c83          	ld	s9,200(sp)
    800014a8:	0d013d03          	ld	s10,208(sp)
    800014ac:	0d813d83          	ld	s11,216(sp)
    800014b0:	0e013e03          	ld	t3,224(sp)
    800014b4:	0e813e83          	ld	t4,232(sp)
    800014b8:	0f013f03          	ld	t5,240(sp)
    800014bc:	0f813f83          	ld	t6,248(sp)
    800014c0:	11810113          	addi	sp,sp,280
    800014c4:	30200073          	mret

00000000800014c8 <strlen.part.0>:
    800014c8:	ff010113          	addi	sp,sp,-16
    800014cc:	00a00613          	li	a2,10
    800014d0:	00002597          	auipc	a1,0x2
    800014d4:	3a058593          	addi	a1,a1,928 # 80003870 <__func__.0+0x108>
    800014d8:	00002517          	auipc	a0,0x2
    800014dc:	37850513          	addi	a0,a0,888 # 80003850 <__func__.0+0xe8>
    800014e0:	00113423          	sd	ra,8(sp)
    800014e4:	52c000ef          	jal	ra,80001a10 <printf>
    800014e8:	00100513          	li	a0,1
    800014ec:	9ddff0ef          	jal	ra,80000ec8 <halt>

00000000800014f0 <strcpy.part.0>:
    800014f0:	ff010113          	addi	sp,sp,-16
    800014f4:	01200613          	li	a2,18
    800014f8:	00002597          	auipc	a1,0x2
    800014fc:	37858593          	addi	a1,a1,888 # 80003870 <__func__.0+0x108>
    80001500:	00002517          	auipc	a0,0x2
    80001504:	35050513          	addi	a0,a0,848 # 80003850 <__func__.0+0xe8>
    80001508:	00113423          	sd	ra,8(sp)
    8000150c:	504000ef          	jal	ra,80001a10 <printf>
    80001510:	00100513          	li	a0,1
    80001514:	9b5ff0ef          	jal	ra,80000ec8 <halt>

0000000080001518 <strlen>:
    80001518:	02050663          	beqz	a0,80001544 <strlen+0x2c>
    8000151c:	00054783          	lbu	a5,0(a0)
    80001520:	00050713          	mv	a4,a0
    80001524:	00000513          	li	a0,0
    80001528:	00078c63          	beqz	a5,80001540 <strlen+0x28>
    8000152c:	00150513          	addi	a0,a0,1
    80001530:	00a707b3          	add	a5,a4,a0
    80001534:	0007c783          	lbu	a5,0(a5)
    80001538:	fe079ae3          	bnez	a5,8000152c <strlen+0x14>
    8000153c:	00008067          	ret
    80001540:	00008067          	ret
    80001544:	ff010113          	addi	sp,sp,-16
    80001548:	00113423          	sd	ra,8(sp)
    8000154c:	f7dff0ef          	jal	ra,800014c8 <strlen.part.0>

0000000080001550 <strcpy>:
    80001550:	02050263          	beqz	a0,80001574 <strcpy+0x24>
    80001554:	00050793          	mv	a5,a0
    80001558:	00058e63          	beqz	a1,80001574 <strcpy+0x24>
    8000155c:	0005c703          	lbu	a4,0(a1)
    80001560:	00178793          	addi	a5,a5,1
    80001564:	00158593          	addi	a1,a1,1
    80001568:	fee78fa3          	sb	a4,-1(a5)
    8000156c:	fe0718e3          	bnez	a4,8000155c <strcpy+0xc>
    80001570:	00008067          	ret
    80001574:	ff010113          	addi	sp,sp,-16
    80001578:	00113423          	sd	ra,8(sp)
    8000157c:	f75ff0ef          	jal	ra,800014f0 <strcpy.part.0>

0000000080001580 <strcmp>:
    80001580:	00054783          	lbu	a5,0(a0)
    80001584:	00158593          	addi	a1,a1,1
    80001588:	00150513          	addi	a0,a0,1
    8000158c:	fff5c703          	lbu	a4,-1(a1)
    80001590:	00078863          	beqz	a5,800015a0 <strcmp+0x20>
    80001594:	fee786e3          	beq	a5,a4,80001580 <strcmp>
    80001598:	40e7853b          	subw	a0,a5,a4
    8000159c:	00008067          	ret
    800015a0:	40e0053b          	negw	a0,a4
    800015a4:	00008067          	ret

00000000800015a8 <memset>:
    800015a8:	fff60893          	addi	a7,a2,-1
    800015ac:	1a060463          	beqz	a2,80001754 <memset+0x1ac>
    800015b0:	40a007b3          	neg	a5,a0
    800015b4:	0077f793          	andi	a5,a5,7
    800015b8:	00778693          	addi	a3,a5,7
    800015bc:	00b00813          	li	a6,11
    800015c0:	0ff5f713          	zext.b	a4,a1
    800015c4:	1906ea63          	bltu	a3,a6,80001758 <memset+0x1b0>
    800015c8:	1ad8e263          	bltu	a7,a3,8000176c <memset+0x1c4>
    800015cc:	18078c63          	beqz	a5,80001764 <memset+0x1bc>
    800015d0:	00e50023          	sb	a4,0(a0)
    800015d4:	00100693          	li	a3,1
    800015d8:	00150593          	addi	a1,a0,1
    800015dc:	ffe60893          	addi	a7,a2,-2
    800015e0:	06d78a63          	beq	a5,a3,80001654 <memset+0xac>
    800015e4:	00e500a3          	sb	a4,1(a0)
    800015e8:	00200693          	li	a3,2
    800015ec:	00250593          	addi	a1,a0,2
    800015f0:	ffd60893          	addi	a7,a2,-3
    800015f4:	06d78063          	beq	a5,a3,80001654 <memset+0xac>
    800015f8:	00e50123          	sb	a4,2(a0)
    800015fc:	00300693          	li	a3,3
    80001600:	00350593          	addi	a1,a0,3
    80001604:	ffc60893          	addi	a7,a2,-4
    80001608:	04d78663          	beq	a5,a3,80001654 <memset+0xac>
    8000160c:	00e501a3          	sb	a4,3(a0)
    80001610:	00400693          	li	a3,4
    80001614:	00450593          	addi	a1,a0,4
    80001618:	ffb60893          	addi	a7,a2,-5
    8000161c:	02d78c63          	beq	a5,a3,80001654 <memset+0xac>
    80001620:	00e50223          	sb	a4,4(a0)
    80001624:	00500693          	li	a3,5
    80001628:	00550593          	addi	a1,a0,5
    8000162c:	ffa60893          	addi	a7,a2,-6
    80001630:	02d78263          	beq	a5,a3,80001654 <memset+0xac>
    80001634:	00e502a3          	sb	a4,5(a0)
    80001638:	00700693          	li	a3,7
    8000163c:	00650593          	addi	a1,a0,6
    80001640:	ff960893          	addi	a7,a2,-7
    80001644:	00d79863          	bne	a5,a3,80001654 <memset+0xac>
    80001648:	00e50323          	sb	a4,6(a0)
    8000164c:	00750593          	addi	a1,a0,7
    80001650:	ff860893          	addi	a7,a2,-8
    80001654:	00871693          	slli	a3,a4,0x8
    80001658:	01071813          	slli	a6,a4,0x10
    8000165c:	00d766b3          	or	a3,a4,a3
    80001660:	01871313          	slli	t1,a4,0x18
    80001664:	0106e6b3          	or	a3,a3,a6
    80001668:	0066e6b3          	or	a3,a3,t1
    8000166c:	02071813          	slli	a6,a4,0x20
    80001670:	02871313          	slli	t1,a4,0x28
    80001674:	0106e6b3          	or	a3,a3,a6
    80001678:	40f60633          	sub	a2,a2,a5
    8000167c:	03071813          	slli	a6,a4,0x30
    80001680:	0066e6b3          	or	a3,a3,t1
    80001684:	0106e6b3          	or	a3,a3,a6
    80001688:	03871313          	slli	t1,a4,0x38
    8000168c:	00f507b3          	add	a5,a0,a5
    80001690:	ff867813          	andi	a6,a2,-8
    80001694:	0066e6b3          	or	a3,a3,t1
    80001698:	00f80833          	add	a6,a6,a5
    8000169c:	00d7b023          	sd	a3,0(a5)
    800016a0:	00878793          	addi	a5,a5,8
    800016a4:	ff079ce3          	bne	a5,a6,8000169c <memset+0xf4>
    800016a8:	ff867693          	andi	a3,a2,-8
    800016ac:	00d587b3          	add	a5,a1,a3
    800016b0:	40d888b3          	sub	a7,a7,a3
    800016b4:	0ad60663          	beq	a2,a3,80001760 <memset+0x1b8>
    800016b8:	00e78023          	sb	a4,0(a5)
    800016bc:	08088c63          	beqz	a7,80001754 <memset+0x1ac>
    800016c0:	00e780a3          	sb	a4,1(a5)
    800016c4:	00100693          	li	a3,1
    800016c8:	08d88663          	beq	a7,a3,80001754 <memset+0x1ac>
    800016cc:	00e78123          	sb	a4,2(a5)
    800016d0:	00200693          	li	a3,2
    800016d4:	08d88063          	beq	a7,a3,80001754 <memset+0x1ac>
    800016d8:	00e781a3          	sb	a4,3(a5)
    800016dc:	00300693          	li	a3,3
    800016e0:	06d88a63          	beq	a7,a3,80001754 <memset+0x1ac>
    800016e4:	00e78223          	sb	a4,4(a5)
    800016e8:	00400693          	li	a3,4
    800016ec:	06d88463          	beq	a7,a3,80001754 <memset+0x1ac>
    800016f0:	00e782a3          	sb	a4,5(a5)
    800016f4:	00500693          	li	a3,5
    800016f8:	04d88e63          	beq	a7,a3,80001754 <memset+0x1ac>
    800016fc:	00e78323          	sb	a4,6(a5)
    80001700:	00600693          	li	a3,6
    80001704:	04d88863          	beq	a7,a3,80001754 <memset+0x1ac>
    80001708:	00e783a3          	sb	a4,7(a5)
    8000170c:	00700693          	li	a3,7
    80001710:	04d88263          	beq	a7,a3,80001754 <memset+0x1ac>
    80001714:	00e78423          	sb	a4,8(a5)
    80001718:	00800693          	li	a3,8
    8000171c:	02d88c63          	beq	a7,a3,80001754 <memset+0x1ac>
    80001720:	00e784a3          	sb	a4,9(a5)
    80001724:	00900693          	li	a3,9
    80001728:	02d88663          	beq	a7,a3,80001754 <memset+0x1ac>
    8000172c:	00e78523          	sb	a4,10(a5)
    80001730:	00a00693          	li	a3,10
    80001734:	02d88063          	beq	a7,a3,80001754 <memset+0x1ac>
    80001738:	00e785a3          	sb	a4,11(a5)
    8000173c:	00b00693          	li	a3,11
    80001740:	00d88a63          	beq	a7,a3,80001754 <memset+0x1ac>
    80001744:	00e78623          	sb	a4,12(a5)
    80001748:	00c00693          	li	a3,12
    8000174c:	00d88463          	beq	a7,a3,80001754 <memset+0x1ac>
    80001750:	00e786a3          	sb	a4,13(a5)
    80001754:	00008067          	ret
    80001758:	00b00693          	li	a3,11
    8000175c:	e6dff06f          	j	800015c8 <memset+0x20>
    80001760:	00008067          	ret
    80001764:	00050593          	mv	a1,a0
    80001768:	eedff06f          	j	80001654 <memset+0xac>
    8000176c:	00050793          	mv	a5,a0
    80001770:	f49ff06f          	j	800016b8 <memset+0x110>

0000000080001774 <memcpy>:
    80001774:	10050263          	beqz	a0,80001878 <memcpy+0x104>
    80001778:	10058263          	beqz	a1,8000187c <memcpy+0x108>
    8000177c:	fff60893          	addi	a7,a2,-1
    80001780:	0e060c63          	beqz	a2,80001878 <memcpy+0x104>
    80001784:	00158713          	addi	a4,a1,1
    80001788:	40e507b3          	sub	a5,a0,a4
    8000178c:	0077b793          	sltiu	a5,a5,7
    80001790:	0088b693          	sltiu	a3,a7,8
    80001794:	0017c793          	xori	a5,a5,1
    80001798:	0016c693          	xori	a3,a3,1
    8000179c:	00d7f7b3          	and	a5,a5,a3
    800017a0:	0ff7f793          	zext.b	a5,a5
    800017a4:	0a078863          	beqz	a5,80001854 <memcpy+0xe0>
    800017a8:	00b567b3          	or	a5,a0,a1
    800017ac:	0077f793          	andi	a5,a5,7
    800017b0:	0a079263          	bnez	a5,80001854 <memcpy+0xe0>
    800017b4:	ff867813          	andi	a6,a2,-8
    800017b8:	00058793          	mv	a5,a1
    800017bc:	00050713          	mv	a4,a0
    800017c0:	00b80833          	add	a6,a6,a1
    800017c4:	0007b683          	ld	a3,0(a5)
    800017c8:	00878793          	addi	a5,a5,8
    800017cc:	00870713          	addi	a4,a4,8
    800017d0:	fed73c23          	sd	a3,-8(a4)
    800017d4:	ff0798e3          	bne	a5,a6,800017c4 <memcpy+0x50>
    800017d8:	ff867693          	andi	a3,a2,-8
    800017dc:	00d50733          	add	a4,a0,a3
    800017e0:	00d585b3          	add	a1,a1,a3
    800017e4:	40d887b3          	sub	a5,a7,a3
    800017e8:	08d60863          	beq	a2,a3,80001878 <memcpy+0x104>
    800017ec:	0005c683          	lbu	a3,0(a1)
    800017f0:	00d70023          	sb	a3,0(a4)
    800017f4:	08078263          	beqz	a5,80001878 <memcpy+0x104>
    800017f8:	0015c603          	lbu	a2,1(a1)
    800017fc:	00100693          	li	a3,1
    80001800:	00c700a3          	sb	a2,1(a4)
    80001804:	06d78a63          	beq	a5,a3,80001878 <memcpy+0x104>
    80001808:	0025c603          	lbu	a2,2(a1)
    8000180c:	00200693          	li	a3,2
    80001810:	00c70123          	sb	a2,2(a4)
    80001814:	06d78263          	beq	a5,a3,80001878 <memcpy+0x104>
    80001818:	0035c603          	lbu	a2,3(a1)
    8000181c:	00300693          	li	a3,3
    80001820:	00c701a3          	sb	a2,3(a4)
    80001824:	04d78a63          	beq	a5,a3,80001878 <memcpy+0x104>
    80001828:	0045c603          	lbu	a2,4(a1)
    8000182c:	00400693          	li	a3,4
    80001830:	00c70223          	sb	a2,4(a4)
    80001834:	04d78263          	beq	a5,a3,80001878 <memcpy+0x104>
    80001838:	0055c603          	lbu	a2,5(a1)
    8000183c:	00500693          	li	a3,5
    80001840:	00c702a3          	sb	a2,5(a4)
    80001844:	02d78a63          	beq	a5,a3,80001878 <memcpy+0x104>
    80001848:	0065c783          	lbu	a5,6(a1)
    8000184c:	00f70323          	sb	a5,6(a4)
    80001850:	00008067          	ret
    80001854:	00c50633          	add	a2,a0,a2
    80001858:	00050793          	mv	a5,a0
    8000185c:	0080006f          	j	80001864 <memcpy+0xf0>
    80001860:	00170713          	addi	a4,a4,1
    80001864:	0005c683          	lbu	a3,0(a1)
    80001868:	00178793          	addi	a5,a5,1
    8000186c:	00070593          	mv	a1,a4
    80001870:	fed78fa3          	sb	a3,-1(a5)
    80001874:	fef616e3          	bne	a2,a5,80001860 <memcpy+0xec>
    80001878:	00008067          	ret
    8000187c:	00000513          	li	a0,0
    80001880:	00008067          	ret

0000000080001884 <number>:
    80001884:	0207f793          	andi	a5,a5,32
    80001888:	fb010113          	addi	sp,sp,-80
    8000188c:	00078e63          	beqz	a5,800018a8 <number+0x24>
    80001890:	01000813          	li	a6,16
    80001894:	13060263          	beq	a2,a6,800019b8 <number+0x134>
    80001898:	00800813          	li	a6,8
    8000189c:	15060663          	beq	a2,a6,800019e8 <number+0x164>
    800018a0:	00200813          	li	a6,2
    800018a4:	11060a63          	beq	a2,a6,800019b8 <number+0x134>
    800018a8:	0c059863          	bnez	a1,80001978 <number+0xf4>
    800018ac:	03000593          	li	a1,48
    800018b0:	00b10423          	sb	a1,8(sp)
    800018b4:	03000293          	li	t0,48
    800018b8:	00000813          	li	a6,0
    800018bc:	00100893          	li	a7,1
    800018c0:	00810f93          	addi	t6,sp,8
    800018c4:	0008859b          	sext.w	a1,a7
    800018c8:	00e8d463          	bge	a7,a4,800018d0 <number+0x4c>
    800018cc:	0007059b          	sext.w	a1,a4
    800018d0:	40b6873b          	subw	a4,a3,a1
    800018d4:	12e05a63          	blez	a4,80001a08 <number+0x184>
    800018d8:	00e50733          	add	a4,a0,a4
    800018dc:	02000313          	li	t1,32
    800018e0:	00150513          	addi	a0,a0,1
    800018e4:	fe650fa3          	sb	t1,-1(a0)
    800018e8:	fee51ce3          	bne	a0,a4,800018e0 <number+0x5c>
    800018ec:	00078e63          	beqz	a5,80001908 <number+0x84>
    800018f0:	00800793          	li	a5,8
    800018f4:	0cf60663          	beq	a2,a5,800019c0 <number+0x13c>
    800018f8:	01000793          	li	a5,16
    800018fc:	0ef60a63          	beq	a2,a5,800019f0 <number+0x16c>
    80001900:	00200793          	li	a5,2
    80001904:	0cf60663          	beq	a2,a5,800019d0 <number+0x14c>
    80001908:	00070513          	mv	a0,a4
    8000190c:	02b8d663          	bge	a7,a1,80001938 <number+0xb4>
    80001910:	4115853b          	subw	a0,a1,a7
    80001914:	fff5051b          	addiw	a0,a0,-1
    80001918:	02051513          	slli	a0,a0,0x20
    8000191c:	02055513          	srli	a0,a0,0x20
    80001920:	00150513          	addi	a0,a0,1
    80001924:	00a70533          	add	a0,a4,a0
    80001928:	03000793          	li	a5,48
    8000192c:	00170713          	addi	a4,a4,1
    80001930:	fef70fa3          	sb	a5,-1(a4)
    80001934:	fea71ce3          	bne	a4,a0,8000192c <number+0xa8>
    80001938:	010f86b3          	add	a3,t6,a6
    8000193c:	00050713          	mv	a4,a0
    80001940:	00100613          	li	a2,1
    80001944:	0080006f          	j	8000194c <number+0xc8>
    80001948:	0006c283          	lbu	t0,0(a3)
    8000194c:	00170713          	addi	a4,a4,1
    80001950:	40e607bb          	subw	a5,a2,a4
    80001954:	010787bb          	addw	a5,a5,a6
    80001958:	00a787bb          	addw	a5,a5,a0
    8000195c:	fe570fa3          	sb	t0,-1(a4)
    80001960:	fff68693          	addi	a3,a3,-1
    80001964:	fef042e3          	bgtz	a5,80001948 <number+0xc4>
    80001968:	0018081b          	addiw	a6,a6,1
    8000196c:	01050533          	add	a0,a0,a6
    80001970:	05010113          	addi	sp,sp,80
    80001974:	00008067          	ret
    80001978:	00810f93          	addi	t6,sp,8
    8000197c:	000f8e13          	mv	t3,t6
    80001980:	00000893          	li	a7,0
    80001984:	00002f17          	auipc	t5,0x2
    80001988:	f2cf0f13          	addi	t5,t5,-212 # 800038b0 <__func__.0+0x148>
    8000198c:	02c5f333          	remu	t1,a1,a2
    80001990:	001e0e13          	addi	t3,t3,1
    80001994:	00058e93          	mv	t4,a1
    80001998:	00088813          	mv	a6,a7
    8000199c:	0018889b          	addiw	a7,a7,1
    800019a0:	006f0333          	add	t1,t5,t1
    800019a4:	00034283          	lbu	t0,0(t1)
    800019a8:	02c5d5b3          	divu	a1,a1,a2
    800019ac:	fe5e0fa3          	sb	t0,-1(t3)
    800019b0:	fccefee3          	bgeu	t4,a2,8000198c <number+0x108>
    800019b4:	f11ff06f          	j	800018c4 <number+0x40>
    800019b8:	ffe6869b          	addiw	a3,a3,-2
    800019bc:	eedff06f          	j	800018a8 <number+0x24>
    800019c0:	03000793          	li	a5,48
    800019c4:	00f70023          	sb	a5,0(a4)
    800019c8:	00170713          	addi	a4,a4,1
    800019cc:	f3dff06f          	j	80001908 <number+0x84>
    800019d0:	03000793          	li	a5,48
    800019d4:	00f70023          	sb	a5,0(a4)
    800019d8:	06200793          	li	a5,98
    800019dc:	00f700a3          	sb	a5,1(a4)
    800019e0:	00270713          	addi	a4,a4,2
    800019e4:	f25ff06f          	j	80001908 <number+0x84>
    800019e8:	fff6869b          	addiw	a3,a3,-1
    800019ec:	ebdff06f          	j	800018a8 <number+0x24>
    800019f0:	03000793          	li	a5,48
    800019f4:	00f70023          	sb	a5,0(a4)
    800019f8:	07800793          	li	a5,120
    800019fc:	00f700a3          	sb	a5,1(a4)
    80001a00:	00270713          	addi	a4,a4,2
    80001a04:	f05ff06f          	j	80001908 <number+0x84>
    80001a08:	00050713          	mv	a4,a0
    80001a0c:	ee1ff06f          	j	800018ec <number+0x68>

0000000080001a10 <printf>:
    80001a10:	f9010113          	addi	sp,sp,-112
    80001a14:	03810313          	addi	t1,sp,56
    80001a18:	02b13c23          	sd	a1,56(sp)
    80001a1c:	04c13023          	sd	a2,64(sp)
    80001a20:	00050593          	mv	a1,a0
    80001a24:	00030613          	mv	a2,t1
    80001a28:	02f19517          	auipc	a0,0x2f19
    80001a2c:	5d850513          	addi	a0,a0,1496 # 82f1b000 <sprint_buf>
    80001a30:	04f13c23          	sd	a5,88(sp)
    80001a34:	02113423          	sd	ra,40(sp)
    80001a38:	02813023          	sd	s0,32(sp)
    80001a3c:	00913c23          	sd	s1,24(sp)
    80001a40:	01213823          	sd	s2,16(sp)
    80001a44:	04d13423          	sd	a3,72(sp)
    80001a48:	04e13823          	sd	a4,80(sp)
    80001a4c:	07013023          	sd	a6,96(sp)
    80001a50:	07113423          	sd	a7,104(sp)
    80001a54:	00613423          	sd	t1,8(sp)
    80001a58:	08c000ef          	jal	ra,80001ae4 <vsprintf>
    80001a5c:	000087b7          	lui	a5,0x8
    80001a60:	04a7cc63          	blt	a5,a0,80001ab8 <printf+0xa8>
    80001a64:	00050913          	mv	s2,a0
    80001a68:	02a05a63          	blez	a0,80001a9c <printf+0x8c>
    80001a6c:	fff5049b          	addiw	s1,a0,-1
    80001a70:	02049493          	slli	s1,s1,0x20
    80001a74:	0204d493          	srli	s1,s1,0x20
    80001a78:	02f19797          	auipc	a5,0x2f19
    80001a7c:	58978793          	addi	a5,a5,1417 # 82f1b001 <sprint_buf+0x1>
    80001a80:	02f19417          	auipc	s0,0x2f19
    80001a84:	58040413          	addi	s0,s0,1408 # 82f1b000 <sprint_buf>
    80001a88:	00f484b3          	add	s1,s1,a5
    80001a8c:	00044503          	lbu	a0,0(s0)
    80001a90:	00140413          	addi	s0,s0,1
    80001a94:	c24ff0ef          	jal	ra,80000eb8 <putch>
    80001a98:	fe941ae3          	bne	s0,s1,80001a8c <printf+0x7c>
    80001a9c:	02813083          	ld	ra,40(sp)
    80001aa0:	02013403          	ld	s0,32(sp)
    80001aa4:	01813483          	ld	s1,24(sp)
    80001aa8:	00090513          	mv	a0,s2
    80001aac:	01013903          	ld	s2,16(sp)
    80001ab0:	07010113          	addi	sp,sp,112
    80001ab4:	00008067          	ret
    80001ab8:	00002517          	auipc	a0,0x2
    80001abc:	e2050513          	addi	a0,a0,-480 # 800038d8 <__func__.0+0x170>
    80001ac0:	f51ff0ef          	jal	ra,80001a10 <printf>
    80001ac4:	10200613          	li	a2,258
    80001ac8:	00002597          	auipc	a1,0x2
    80001acc:	e3058593          	addi	a1,a1,-464 # 800038f8 <__func__.0+0x190>
    80001ad0:	00002517          	auipc	a0,0x2
    80001ad4:	d8050513          	addi	a0,a0,-640 # 80003850 <__func__.0+0xe8>
    80001ad8:	f39ff0ef          	jal	ra,80001a10 <printf>
    80001adc:	00100513          	li	a0,1
    80001ae0:	be8ff0ef          	jal	ra,80000ec8 <halt>

0000000080001ae4 <vsprintf>:
    80001ae4:	fb010113          	addi	sp,sp,-80
    80001ae8:	04813023          	sd	s0,64(sp)
    80001aec:	04113423          	sd	ra,72(sp)
    80001af0:	02913c23          	sd	s1,56(sp)
    80001af4:	03213823          	sd	s2,48(sp)
    80001af8:	03313423          	sd	s3,40(sp)
    80001afc:	03413023          	sd	s4,32(sp)
    80001b00:	01513c23          	sd	s5,24(sp)
    80001b04:	01613823          	sd	s6,16(sp)
    80001b08:	0005c783          	lbu	a5,0(a1)
    80001b0c:	00050413          	mv	s0,a0
    80001b10:	38078263          	beqz	a5,80001e94 <vsprintf+0x3b0>
    80001b14:	00058813          	mv	a6,a1
    80001b18:	00060993          	mv	s3,a2
    80001b1c:	02500913          	li	s2,37
    80001b20:	03000a93          	li	s5,48
    80001b24:	00002b17          	auipc	s6,0x2
    80001b28:	e10b0b13          	addi	s6,s6,-496 # 80003934 <__func__.0+0x1cc>
    80001b2c:	00002497          	auipc	s1,0x2
    80001b30:	e8c48493          	addi	s1,s1,-372 # 800039b8 <__func__.0+0x250>
    80001b34:	03900a13          	li	s4,57
    80001b38:	05278663          	beq	a5,s2,80001b84 <vsprintf+0xa0>
    80001b3c:	00f50023          	sb	a5,0(a0)
    80001b40:	00150513          	addi	a0,a0,1
    80001b44:	00184783          	lbu	a5,1(a6)
    80001b48:	00180813          	addi	a6,a6,1
    80001b4c:	fe0796e3          	bnez	a5,80001b38 <vsprintf+0x54>
    80001b50:	4085043b          	subw	s0,a0,s0
    80001b54:	00050023          	sb	zero,0(a0)
    80001b58:	04813083          	ld	ra,72(sp)
    80001b5c:	00040513          	mv	a0,s0
    80001b60:	04013403          	ld	s0,64(sp)
    80001b64:	03813483          	ld	s1,56(sp)
    80001b68:	03013903          	ld	s2,48(sp)
    80001b6c:	02813983          	ld	s3,40(sp)
    80001b70:	02013a03          	ld	s4,32(sp)
    80001b74:	01813a83          	ld	s5,24(sp)
    80001b78:	01013b03          	ld	s6,16(sp)
    80001b7c:	05010113          	addi	sp,sp,80
    80001b80:	00008067          	ret
    80001b84:	00000793          	li	a5,0
    80001b88:	02300713          	li	a4,35
    80001b8c:	00184583          	lbu	a1,1(a6)
    80001b90:	00180813          	addi	a6,a6,1
    80001b94:	00e58c63          	beq	a1,a4,80001bac <vsprintf+0xc8>
    80001b98:	01559e63          	bne	a1,s5,80001bb4 <vsprintf+0xd0>
    80001b9c:	00184583          	lbu	a1,1(a6)
    80001ba0:	0017e793          	ori	a5,a5,1
    80001ba4:	00180813          	addi	a6,a6,1
    80001ba8:	fee598e3          	bne	a1,a4,80001b98 <vsprintf+0xb4>
    80001bac:	0207e793          	ori	a5,a5,32
    80001bb0:	fddff06f          	j	80001b8c <vsprintf+0xa8>
    80001bb4:	fd05871b          	addiw	a4,a1,-48
    80001bb8:	0ff77713          	zext.b	a4,a4
    80001bbc:	00900613          	li	a2,9
    80001bc0:	fff00693          	li	a3,-1
    80001bc4:	1ce67263          	bgeu	a2,a4,80001d88 <vsprintf+0x2a4>
    80001bc8:	02e00613          	li	a2,46
    80001bcc:	fff00713          	li	a4,-1
    80001bd0:	16c58463          	beq	a1,a2,80001d38 <vsprintf+0x254>
    80001bd4:	06c00613          	li	a2,108
    80001bd8:	fff00893          	li	a7,-1
    80001bdc:	02c58663          	beq	a1,a2,80001c08 <vsprintf+0x124>
    80001be0:	1f258863          	beq	a1,s2,80001dd0 <vsprintf+0x2ec>
    80001be4:	fa85859b          	addiw	a1,a1,-88
    80001be8:	0ff5f593          	zext.b	a1,a1
    80001bec:	02000613          	li	a2,32
    80001bf0:	2ab66663          	bltu	a2,a1,80001e9c <vsprintf+0x3b8>
    80001bf4:	00259593          	slli	a1,a1,0x2
    80001bf8:	016585b3          	add	a1,a1,s6
    80001bfc:	0005a603          	lw	a2,0(a1)
    80001c00:	01660633          	add	a2,a2,s6
    80001c04:	00060067          	jr	a2
    80001c08:	00184603          	lbu	a2,1(a6)
    80001c0c:	1ab60a63          	beq	a2,a1,80001dc0 <vsprintf+0x2dc>
    80001c10:	00180813          	addi	a6,a6,1
    80001c14:	1b260e63          	beq	a2,s2,80001dd0 <vsprintf+0x2ec>
    80001c18:	fa86061b          	addiw	a2,a2,-88
    80001c1c:	0ff67613          	zext.b	a2,a2
    80001c20:	02000593          	li	a1,32
    80001c24:	26c5ec63          	bltu	a1,a2,80001e9c <vsprintf+0x3b8>
    80001c28:	00261613          	slli	a2,a2,0x2
    80001c2c:	00960633          	add	a2,a2,s1
    80001c30:	00062603          	lw	a2,0(a2)
    80001c34:	00960633          	add	a2,a2,s1
    80001c38:	00060067          	jr	a2
    80001c3c:	0009b603          	ld	a2,0(s3)
    80001c40:	00898993          	addi	s3,s3,8
    80001c44:	00060793          	mv	a5,a2
    80001c48:	00e605b3          	add	a1,a2,a4
    80001c4c:	00071863          	bnez	a4,80001c5c <vsprintf+0x178>
    80001c50:	2740006f          	j	80001ec4 <vsprintf+0x3e0>
    80001c54:	00178793          	addi	a5,a5,1
    80001c58:	00b78663          	beq	a5,a1,80001c64 <vsprintf+0x180>
    80001c5c:	0007c703          	lbu	a4,0(a5)
    80001c60:	fe071ae3          	bnez	a4,80001c54 <vsprintf+0x170>
    80001c64:	40c787bb          	subw	a5,a5,a2
    80001c68:	04d7d263          	bge	a5,a3,80001cac <vsprintf+0x1c8>
    80001c6c:	00050713          	mv	a4,a0
    80001c70:	0006889b          	sext.w	a7,a3
    80001c74:	02000313          	li	t1,32
    80001c78:	00170713          	addi	a4,a4,1
    80001c7c:	40e505bb          	subw	a1,a0,a4
    80001c80:	011585bb          	addw	a1,a1,a7
    80001c84:	fe670fa3          	sb	t1,-1(a4)
    80001c88:	feb7c8e3          	blt	a5,a1,80001c78 <vsprintf+0x194>
    80001c8c:	00100713          	li	a4,1
    80001c90:	00d7dc63          	bge	a5,a3,80001ca8 <vsprintf+0x1c4>
    80001c94:	fff8871b          	addiw	a4,a7,-1
    80001c98:	40f7073b          	subw	a4,a4,a5
    80001c9c:	02071713          	slli	a4,a4,0x20
    80001ca0:	02075713          	srli	a4,a4,0x20
    80001ca4:	00170713          	addi	a4,a4,1
    80001ca8:	00e50533          	add	a0,a0,a4
    80001cac:	e8f05ce3          	blez	a5,80001b44 <vsprintf+0x60>
    80001cb0:	00f605b3          	add	a1,a2,a5
    80001cb4:	00050713          	mv	a4,a0
    80001cb8:	00064683          	lbu	a3,0(a2)
    80001cbc:	00160613          	addi	a2,a2,1
    80001cc0:	00170713          	addi	a4,a4,1
    80001cc4:	fed70fa3          	sb	a3,-1(a4)
    80001cc8:	fec598e3          	bne	a1,a2,80001cb8 <vsprintf+0x1d4>
    80001ccc:	00f50533          	add	a0,a0,a5
    80001cd0:	e75ff06f          	j	80001b44 <vsprintf+0x60>
    80001cd4:	fff00613          	li	a2,-1
    80001cd8:	14c68663          	beq	a3,a2,80001e24 <vsprintf+0x340>
    80001cdc:	0009b583          	ld	a1,0(s3)
    80001ce0:	01000613          	li	a2,16
    80001ce4:	01013423          	sd	a6,8(sp)
    80001ce8:	b9dff0ef          	jal	ra,80001884 <number>
    80001cec:	00813803          	ld	a6,8(sp)
    80001cf0:	00898993          	addi	s3,s3,8
    80001cf4:	e51ff06f          	j	80001b44 <vsprintf+0x60>
    80001cf8:	00100793          	li	a5,1
    80001cfc:	18d7d863          	bge	a5,a3,80001e8c <vsprintf+0x3a8>
    80001d00:	ffe6879b          	addiw	a5,a3,-2
    80001d04:	02079793          	slli	a5,a5,0x20
    80001d08:	0207d793          	srli	a5,a5,0x20
    80001d0c:	00178793          	addi	a5,a5,1
    80001d10:	00f507b3          	add	a5,a0,a5
    80001d14:	02000713          	li	a4,32
    80001d18:	00150513          	addi	a0,a0,1
    80001d1c:	fee50fa3          	sb	a4,-1(a0)
    80001d20:	fea79ce3          	bne	a5,a0,80001d18 <vsprintf+0x234>
    80001d24:	0009a703          	lw	a4,0(s3)
    80001d28:	00178513          	addi	a0,a5,1
    80001d2c:	00898993          	addi	s3,s3,8
    80001d30:	00e78023          	sb	a4,0(a5)
    80001d34:	e11ff06f          	j	80001b44 <vsprintf+0x60>
    80001d38:	00184583          	lbu	a1,1(a6)
    80001d3c:	00900893          	li	a7,9
    80001d40:	00180813          	addi	a6,a6,1
    80001d44:	fd05861b          	addiw	a2,a1,-48
    80001d48:	0ff67613          	zext.b	a2,a2
    80001d4c:	00000713          	li	a4,0
    80001d50:	e8c8e2e3          	bltu	a7,a2,80001bd4 <vsprintf+0xf0>
    80001d54:	0005889b          	sext.w	a7,a1
    80001d58:	02f00313          	li	t1,47
    80001d5c:	0027161b          	slliw	a2,a4,0x2
    80001d60:	00184583          	lbu	a1,1(a6)
    80001d64:	00e6073b          	addw	a4,a2,a4
    80001d68:	0017171b          	slliw	a4,a4,0x1
    80001d6c:	0117073b          	addw	a4,a4,a7
    80001d70:	00180813          	addi	a6,a6,1
    80001d74:	fd07071b          	addiw	a4,a4,-48
    80001d78:	0005889b          	sext.w	a7,a1
    80001d7c:	e4b35ce3          	bge	t1,a1,80001bd4 <vsprintf+0xf0>
    80001d80:	fd1a5ee3          	bge	s4,a7,80001d5c <vsprintf+0x278>
    80001d84:	e51ff06f          	j	80001bd4 <vsprintf+0xf0>
    80001d88:	0005861b          	sext.w	a2,a1
    80001d8c:	00000693          	li	a3,0
    80001d90:	02f00893          	li	a7,47
    80001d94:	0026971b          	slliw	a4,a3,0x2
    80001d98:	00184583          	lbu	a1,1(a6)
    80001d9c:	00d7073b          	addw	a4,a4,a3
    80001da0:	0017171b          	slliw	a4,a4,0x1
    80001da4:	00c7073b          	addw	a4,a4,a2
    80001da8:	00180813          	addi	a6,a6,1
    80001dac:	fd07069b          	addiw	a3,a4,-48
    80001db0:	0005861b          	sext.w	a2,a1
    80001db4:	e0b8dae3          	bge	a7,a1,80001bc8 <vsprintf+0xe4>
    80001db8:	fcca5ee3          	bge	s4,a2,80001d94 <vsprintf+0x2b0>
    80001dbc:	e0dff06f          	j	80001bc8 <vsprintf+0xe4>
    80001dc0:	00284583          	lbu	a1,2(a6)
    80001dc4:	07100893          	li	a7,113
    80001dc8:	00280813          	addi	a6,a6,2
    80001dcc:	e1259ce3          	bne	a1,s2,80001be4 <vsprintf+0x100>
    80001dd0:	01250023          	sb	s2,0(a0)
    80001dd4:	00150513          	addi	a0,a0,1
    80001dd8:	d6dff06f          	j	80001b44 <vsprintf+0x60>
    80001ddc:	01000613          	li	a2,16
    80001de0:	07100593          	li	a1,113
    80001de4:	00898313          	addi	t1,s3,8
    80001de8:	02b88863          	beq	a7,a1,80001e18 <vsprintf+0x334>
    80001dec:	0009e583          	lwu	a1,0(s3)
    80001df0:	00030993          	mv	s3,t1
    80001df4:	01013423          	sd	a6,8(sp)
    80001df8:	a8dff0ef          	jal	ra,80001884 <number>
    80001dfc:	00813803          	ld	a6,8(sp)
    80001e00:	d45ff06f          	j	80001b44 <vsprintf+0x60>
    80001e04:	07100593          	li	a1,113
    80001e08:	0407e793          	ori	a5,a5,64
    80001e0c:	01000613          	li	a2,16
    80001e10:	00898313          	addi	t1,s3,8
    80001e14:	fcb89ce3          	bne	a7,a1,80001dec <vsprintf+0x308>
    80001e18:	0009b583          	ld	a1,0(s3)
    80001e1c:	00030993          	mv	s3,t1
    80001e20:	fd5ff06f          	j	80001df4 <vsprintf+0x310>
    80001e24:	0009b583          	ld	a1,0(s3)
    80001e28:	0017e793          	ori	a5,a5,1
    80001e2c:	01000693          	li	a3,16
    80001e30:	01000613          	li	a2,16
    80001e34:	01013423          	sd	a6,8(sp)
    80001e38:	a4dff0ef          	jal	ra,80001884 <number>
    80001e3c:	00813803          	ld	a6,8(sp)
    80001e40:	00898993          	addi	s3,s3,8
    80001e44:	d01ff06f          	j	80001b44 <vsprintf+0x60>
    80001e48:	00800613          	li	a2,8
    80001e4c:	f95ff06f          	j	80001de0 <vsprintf+0x2fc>
    80001e50:	00a00613          	li	a2,10
    80001e54:	f8dff06f          	j	80001de0 <vsprintf+0x2fc>
    80001e58:	00200613          	li	a2,2
    80001e5c:	f85ff06f          	j	80001de0 <vsprintf+0x2fc>
    80001e60:	00200613          	li	a2,2
    80001e64:	0009b583          	ld	a1,0(s3)
    80001e68:	00898993          	addi	s3,s3,8
    80001e6c:	f89ff06f          	j	80001df4 <vsprintf+0x310>
    80001e70:	00a00613          	li	a2,10
    80001e74:	ff1ff06f          	j	80001e64 <vsprintf+0x380>
    80001e78:	0407e793          	ori	a5,a5,64
    80001e7c:	01000613          	li	a2,16
    80001e80:	fe5ff06f          	j	80001e64 <vsprintf+0x380>
    80001e84:	01000613          	li	a2,16
    80001e88:	fddff06f          	j	80001e64 <vsprintf+0x380>
    80001e8c:	00050793          	mv	a5,a0
    80001e90:	e95ff06f          	j	80001d24 <vsprintf+0x240>
    80001e94:	00000413          	li	s0,0
    80001e98:	cbdff06f          	j	80001b54 <vsprintf+0x70>
    80001e9c:	0d900613          	li	a2,217
    80001ea0:	00002597          	auipc	a1,0x2
    80001ea4:	a5858593          	addi	a1,a1,-1448 # 800038f8 <__func__.0+0x190>
    80001ea8:	00002517          	auipc	a0,0x2
    80001eac:	9a850513          	addi	a0,a0,-1624 # 80003850 <__func__.0+0xe8>
    80001eb0:	b61ff0ef          	jal	ra,80001a10 <printf>
    80001eb4:	00100513          	li	a0,1
    80001eb8:	810ff0ef          	jal	ra,80000ec8 <halt>
    80001ebc:	00800613          	li	a2,8
    80001ec0:	fa5ff06f          	j	80001e64 <vsprintf+0x380>
    80001ec4:	00000793          	li	a5,0
    80001ec8:	dad042e3          	bgtz	a3,80001c6c <vsprintf+0x188>
    80001ecc:	c79ff06f          	j	80001b44 <vsprintf+0x60>

0000000080001ed0 <sprintf>:
    80001ed0:	fb010113          	addi	sp,sp,-80
    80001ed4:	02010313          	addi	t1,sp,32
    80001ed8:	02c13023          	sd	a2,32(sp)
    80001edc:	00030613          	mv	a2,t1
    80001ee0:	00113c23          	sd	ra,24(sp)
    80001ee4:	02d13423          	sd	a3,40(sp)
    80001ee8:	02e13823          	sd	a4,48(sp)
    80001eec:	02f13c23          	sd	a5,56(sp)
    80001ef0:	05013023          	sd	a6,64(sp)
    80001ef4:	05113423          	sd	a7,72(sp)
    80001ef8:	00613423          	sd	t1,8(sp)
    80001efc:	be9ff0ef          	jal	ra,80001ae4 <vsprintf>
    80001f00:	01813083          	ld	ra,24(sp)
    80001f04:	05010113          	addi	sp,sp,80
    80001f08:	00008067          	ret
