
/home/cyh/ysyx-workbench/am-kernels/tests/am-tests/build/amtest-riscv64-nemu.elf:     file format elf64-littleriscv


Disassembly of section .text:

0000000080000000 <_start>:
    80000000:	00000413          	li	s0,0
    80000004:	000a6117          	auipc	sp,0xa6
    80000008:	ffc10113          	addi	sp,sp,-4 # 800a6000 <_end>
    8000000c:	7f5000ef          	jal	ra,80001000 <_trm_init>

0000000080000010 <main>:
    80000010:	fd010113          	addi	sp,sp,-48
    80000014:	02113423          	sd	ra,40(sp)
    80000018:	02813023          	sd	s0,32(sp)
    8000001c:	00913c23          	sd	s1,24(sp)
    80000020:	01213823          	sd	s2,16(sp)
    80000024:	01313423          	sd	s3,8(sp)
    80000028:	00054783          	lbu	a5,0(a0)
    8000002c:	01500713          	li	a4,21
    80000030:	f9f7879b          	addiw	a5,a5,-97
    80000034:	0ff7f793          	zext.b	a5,a5
    80000038:	02f76063          	bltu	a4,a5,80000058 <main+0x48>
    8000003c:	00002717          	auipc	a4,0x2
    80000040:	fc070713          	addi	a4,a4,-64 # 80001ffc <_etext+0x30>
    80000044:	00279793          	slli	a5,a5,0x2
    80000048:	00e787b3          	add	a5,a5,a4
    8000004c:	0007a783          	lw	a5,0(a5)
    80000050:	00e787b3          	add	a5,a5,a4
    80000054:	00078067          	jr	a5
    80000058:	00002517          	auipc	a0,0x2
    8000005c:	f7850513          	addi	a0,a0,-136 # 80001fd0 <_etext+0x4>
    80000060:	279010ef          	jal	ra,80001ad8 <printf>
    80000064:	00002497          	auipc	s1,0x2
    80000068:	0c448493          	addi	s1,s1,196 # 80002128 <tests+0x8>
    8000006c:	00000413          	li	s0,0
    80000070:	10000913          	li	s2,256
    80000074:	00002997          	auipc	s3,0x2
    80000078:	f7c98993          	addi	s3,s3,-132 # 80001ff0 <_etext+0x24>
    8000007c:	0014041b          	addiw	s0,s0,1
    80000080:	03240c63          	beq	s0,s2,800000b8 <main+0xa8>
    80000084:	0004b603          	ld	a2,0(s1)
    80000088:	00060863          	beqz	a2,80000098 <main+0x88>
    8000008c:	00040593          	mv	a1,s0
    80000090:	00098513          	mv	a0,s3
    80000094:	245010ef          	jal	ra,80001ad8 <printf>
    80000098:	00848493          	addi	s1,s1,8
    8000009c:	fe1ff06f          	j	8000007c <main+0x6c>
    800000a0:	00000797          	auipc	a5,0x0
    800000a4:	52478793          	addi	a5,a5,1316 # 800005c4 <audio_test>
    800000a8:	0009e717          	auipc	a4,0x9e
    800000ac:	90f73c23          	sd	a5,-1768(a4) # 8009d9c0 <entry>
    800000b0:	004010ef          	jal	ra,800010b4 <ioe_init>
    800000b4:	510000ef          	jal	ra,800005c4 <audio_test>
    800000b8:	02813083          	ld	ra,40(sp)
    800000bc:	02013403          	ld	s0,32(sp)
    800000c0:	01813483          	ld	s1,24(sp)
    800000c4:	01013903          	ld	s2,16(sp)
    800000c8:	00813983          	ld	s3,8(sp)
    800000cc:	00000513          	li	a0,0
    800000d0:	03010113          	addi	sp,sp,48
    800000d4:	00008067          	ret
    800000d8:	00001797          	auipc	a5,0x1
    800000dc:	ba078793          	addi	a5,a5,-1120 # 80000c78 <devscan>
    800000e0:	0009e717          	auipc	a4,0x9e
    800000e4:	8ef73023          	sd	a5,-1824(a4) # 8009d9c0 <entry>
    800000e8:	7cd000ef          	jal	ra,800010b4 <ioe_init>
    800000ec:	38d000ef          	jal	ra,80000c78 <devscan>
    800000f0:	fc9ff06f          	j	800000b8 <main+0xa8>
    800000f4:	00000797          	auipc	a5,0x0
    800000f8:	71c78793          	addi	a5,a5,1820 # 80000810 <hello>
    800000fc:	0009e717          	auipc	a4,0x9e
    80000100:	8cf73223          	sd	a5,-1852(a4) # 8009d9c0 <entry>
    80000104:	70c000ef          	jal	ra,80000810 <hello>
    80000108:	fb1ff06f          	j	800000b8 <main+0xa8>
    8000010c:	00000797          	auipc	a5,0x0
    80000110:	68078793          	addi	a5,a5,1664 # 8000078c <hello_intr>
    80000114:	0009e717          	auipc	a4,0x9e
    80000118:	8af73623          	sd	a5,-1876(a4) # 8009d9c0 <entry>
    8000011c:	799000ef          	jal	ra,800010b4 <ioe_init>
    80000120:	00000517          	auipc	a0,0x0
    80000124:	5d850513          	addi	a0,a0,1496 # 800006f8 <simple_trap>
    80000128:	428010ef          	jal	ra,80001550 <cte_init>
    8000012c:	660000ef          	jal	ra,8000078c <hello_intr>
    80000130:	f89ff06f          	j	800000b8 <main+0xa8>
    80000134:	00001797          	auipc	a5,0x1
    80000138:	db478793          	addi	a5,a5,-588 # 80000ee8 <keyboard_test>
    8000013c:	0009e717          	auipc	a4,0x9e
    80000140:	88f73223          	sd	a5,-1916(a4) # 8009d9c0 <entry>
    80000144:	771000ef          	jal	ra,800010b4 <ioe_init>
    80000148:	5a1000ef          	jal	ra,80000ee8 <keyboard_test>
    8000014c:	f6dff06f          	j	800000b8 <main+0xa8>
    80000150:	00001797          	auipc	a5,0x1
    80000154:	b0078793          	addi	a5,a5,-1280 # 80000c50 <mp_print>
    80000158:	00078513          	mv	a0,a5
    8000015c:	0009e717          	auipc	a4,0x9e
    80000160:	86f73223          	sd	a5,-1948(a4) # 8009d9c0 <entry>
    80000164:	29c010ef          	jal	ra,80001400 <mpe_init>
    80000168:	2e9000ef          	jal	ra,80000c50 <mp_print>
    8000016c:	f4dff06f          	j	800000b8 <main+0xa8>
    80000170:	00000797          	auipc	a5,0x0
    80000174:	2f078793          	addi	a5,a5,752 # 80000460 <vm_test>
    80000178:	00000517          	auipc	a0,0x0
    8000017c:	17050513          	addi	a0,a0,368 # 800002e8 <vm_handler>
    80000180:	0009e717          	auipc	a4,0x9e
    80000184:	84f73023          	sd	a5,-1984(a4) # 8009d9c0 <entry>
    80000188:	3c8010ef          	jal	ra,80001550 <cte_init>
    8000018c:	00000597          	auipc	a1,0x0
    80000190:	15858593          	addi	a1,a1,344 # 800002e4 <simple_pgfree>
    80000194:	00000517          	auipc	a0,0x0
    80000198:	10c50513          	addi	a0,a0,268 # 800002a0 <simple_pgalloc>
    8000019c:	568010ef          	jal	ra,80001704 <vme_init>
    800001a0:	2c0000ef          	jal	ra,80000460 <vm_test>
    800001a4:	f15ff06f          	j	800000b8 <main+0xa8>
    800001a8:	00000797          	auipc	a5,0x0
    800001ac:	03878793          	addi	a5,a5,56 # 800001e0 <rtc_test>
    800001b0:	0009e717          	auipc	a4,0x9e
    800001b4:	80f73823          	sd	a5,-2032(a4) # 8009d9c0 <entry>
    800001b8:	6fd000ef          	jal	ra,800010b4 <ioe_init>
    800001bc:	024000ef          	jal	ra,800001e0 <rtc_test>
    800001c0:	ef9ff06f          	j	800000b8 <main+0xa8>
    800001c4:	00001797          	auipc	a5,0x1
    800001c8:	9e078793          	addi	a5,a5,-1568 # 80000ba4 <video_test>
    800001cc:	0009d717          	auipc	a4,0x9d
    800001d0:	7ef73a23          	sd	a5,2036(a4) # 8009d9c0 <entry>
    800001d4:	6e1000ef          	jal	ra,800010b4 <ioe_init>
    800001d8:	1cd000ef          	jal	ra,80000ba4 <video_test>
    800001dc:	eddff06f          	j	800000b8 <main+0xa8>

00000000800001e0 <rtc_test>:
    800001e0:	fa010113          	addi	sp,sp,-96
    800001e4:	04913423          	sd	s1,72(sp)
    800001e8:	000f44b7          	lui	s1,0xf4
    800001ec:	04813823          	sd	s0,80(sp)
    800001f0:	03313c23          	sd	s3,56(sp)
    800001f4:	03413823          	sd	s4,48(sp)
    800001f8:	03513423          	sd	s5,40(sp)
    800001fc:	03613023          	sd	s6,32(sp)
    80000200:	04113c23          	sd	ra,88(sp)
    80000204:	05213023          	sd	s2,64(sp)
    80000208:	00100413          	li	s0,1
    8000020c:	24048493          	addi	s1,s1,576 # f4240 <_entry_offset+0xf4240>
    80000210:	00002a17          	auipc	s4,0x2
    80000214:	710a0a13          	addi	s4,s4,1808 # 80002920 <tests+0x800>
    80000218:	00100993          	li	s3,1
    8000021c:	00002b17          	auipc	s6,0x2
    80000220:	734b0b13          	addi	s6,s6,1844 # 80002950 <tests+0x830>
    80000224:	00002a97          	auipc	s5,0x2
    80000228:	71ca8a93          	addi	s5,s5,1820 # 80002940 <tests+0x820>
    8000022c:	0004091b          	sext.w	s2,s0
    80000230:	00810593          	addi	a1,sp,8
    80000234:	00600513          	li	a0,6
    80000238:	6d9000ef          	jal	ra,80001110 <ioe_read>
    8000023c:	00813783          	ld	a5,8(sp)
    80000240:	0297d7b3          	divu	a5,a5,s1
    80000244:	fe87e6e3          	bltu	a5,s0,80000230 <rtc_test+0x50>
    80000248:	00810593          	addi	a1,sp,8
    8000024c:	00500513          	li	a0,5
    80000250:	6c1000ef          	jal	ra,80001110 <ioe_read>
    80000254:	01c12803          	lw	a6,28(sp)
    80000258:	01812783          	lw	a5,24(sp)
    8000025c:	01412703          	lw	a4,20(sp)
    80000260:	01012683          	lw	a3,16(sp)
    80000264:	00c12603          	lw	a2,12(sp)
    80000268:	00812583          	lw	a1,8(sp)
    8000026c:	000a0513          	mv	a0,s4
    80000270:	069010ef          	jal	ra,80001ad8 <printf>
    80000274:	01341c63          	bne	s0,s3,8000028c <rtc_test+0xac>
    80000278:	00100593          	li	a1,1
    8000027c:	000a8513          	mv	a0,s5
    80000280:	059010ef          	jal	ra,80001ad8 <printf>
    80000284:	00140413          	addi	s0,s0,1
    80000288:	fa5ff06f          	j	8000022c <rtc_test+0x4c>
    8000028c:	00090593          	mv	a1,s2
    80000290:	000b0513          	mv	a0,s6
    80000294:	045010ef          	jal	ra,80001ad8 <printf>
    80000298:	00140413          	addi	s0,s0,1
    8000029c:	f91ff06f          	j	8000022c <rtc_test+0x4c>

00000000800002a0 <simple_pgalloc>:
    800002a0:	0009d617          	auipc	a2,0x9d
    800002a4:	72860613          	addi	a2,a2,1832 # 8009d9c8 <st>
    800002a8:	00063683          	ld	a3,0(a2)
    800002ac:	00069663          	bnez	a3,800002b8 <simple_pgalloc+0x18>
    800002b0:	00011697          	auipc	a3,0x11
    800002b4:	0b06b683          	ld	a3,176(a3) # 80011360 <heap>
    800002b8:	02a6f7b3          	remu	a5,a3,a0
    800002bc:	00078c63          	beqz	a5,800002d4 <simple_pgalloc+0x34>
    800002c0:	00168793          	addi	a5,a3,1
    800002c4:	02a7f733          	remu	a4,a5,a0
    800002c8:	00078693          	mv	a3,a5
    800002cc:	00178793          	addi	a5,a5,1
    800002d0:	fe071ae3          	bnez	a4,800002c4 <simple_pgalloc+0x24>
    800002d4:	00d50533          	add	a0,a0,a3
    800002d8:	00a63023          	sd	a0,0(a2)
    800002dc:	00068513          	mv	a0,a3
    800002e0:	00008067          	ret

00000000800002e4 <simple_pgfree>:
    800002e4:	00008067          	ret

00000000800002e8 <vm_handler>:
    800002e8:	00052783          	lw	a5,0(a0)
    800002ec:	fe010113          	addi	sp,sp,-32
    800002f0:	00813823          	sd	s0,16(sp)
    800002f4:	00113c23          	sd	ra,24(sp)
    800002f8:	00300713          	li	a4,3
    800002fc:	00853603          	ld	a2,8(a0)
    80000300:	00058413          	mv	s0,a1
    80000304:	0ce78263          	beq	a5,a4,800003c8 <vm_handler+0xe0>
    80000308:	08f76263          	bltu	a4,a5,8000038c <vm_handler+0xa4>
    8000030c:	00100713          	li	a4,1
    80000310:	08e78c63          	beq	a5,a4,800003a8 <vm_handler+0xc0>
    80000314:	00200713          	li	a4,2
    80000318:	12e79463          	bne	a5,a4,80000440 <vm_handler+0x158>
    8000031c:	00100513          	li	a0,1
    80000320:	25c010ef          	jal	ra,8000157c <iset>
    80000324:	00012623          	sw	zero,12(sp)
    80000328:	00c12783          	lw	a5,12(sp)
    8000032c:	000f4737          	lui	a4,0xf4
    80000330:	23f70713          	addi	a4,a4,575 # f423f <_entry_offset+0xf423f>
    80000334:	00f74c63          	blt	a4,a5,8000034c <vm_handler+0x64>
    80000338:	00c12783          	lw	a5,12(sp)
    8000033c:	0017879b          	addiw	a5,a5,1
    80000340:	00f12623          	sw	a5,12(sp)
    80000344:	00c12783          	lw	a5,12(sp)
    80000348:	fef758e3          	bge	a4,a5,80000338 <vm_handler+0x50>
    8000034c:	05043583          	ld	a1,80(s0)
    80000350:	00002517          	auipc	a0,0x2
    80000354:	66050513          	addi	a0,a0,1632 # 800029b0 <tests+0x890>
    80000358:	780010ef          	jal	ra,80001ad8 <printf>
    8000035c:	00011797          	auipc	a5,0x11
    80000360:	ffc7a783          	lw	a5,-4(a5) # 80011358 <first_trap>
    80000364:	00078a63          	beqz	a5,80000378 <vm_handler+0x90>
    80000368:	00011797          	auipc	a5,0x11
    8000036c:	fe07a823          	sw	zero,-16(a5) # 80011358 <first_trap>
    80000370:	0009d417          	auipc	s0,0x9d
    80000374:	66043403          	ld	s0,1632(s0) # 8009d9d0 <uctx>
    80000378:	01813083          	ld	ra,24(sp)
    8000037c:	00040513          	mv	a0,s0
    80000380:	01013403          	ld	s0,16(sp)
    80000384:	02010113          	addi	sp,sp,32
    80000388:	00008067          	ret
    8000038c:	ffb7879b          	addiw	a5,a5,-5
    80000390:	00100713          	li	a4,1
    80000394:	0af76663          	bltu	a4,a5,80000440 <vm_handler+0x158>
    80000398:	01853583          	ld	a1,24(a0)
    8000039c:	00002517          	auipc	a0,0x2
    800003a0:	5e450513          	addi	a0,a0,1508 # 80002980 <tests+0x860>
    800003a4:	734010ef          	jal	ra,80001ad8 <printf>
    800003a8:	00011797          	auipc	a5,0x11
    800003ac:	fb07a783          	lw	a5,-80(a5) # 80011358 <first_trap>
    800003b0:	fc0784e3          	beqz	a5,80000378 <vm_handler+0x90>
    800003b4:	00011797          	auipc	a5,0x11
    800003b8:	fa07a223          	sw	zero,-92(a5) # 80011358 <first_trap>
    800003bc:	0009d417          	auipc	s0,0x9d
    800003c0:	61443403          	ld	s0,1556(s0) # 8009d9d0 <uctx>
    800003c4:	fb5ff06f          	j	80000378 <vm_handler+0x90>
    800003c8:	00167793          	andi	a5,a2,1
    800003cc:	01053583          	ld	a1,16(a0)
    800003d0:	00002697          	auipc	a3,0x2
    800003d4:	59068693          	addi	a3,a3,1424 # 80002960 <tests+0x840>
    800003d8:	04078663          	beqz	a5,80000424 <vm_handler+0x13c>
    800003dc:	00267613          	andi	a2,a2,2
    800003e0:	00002717          	auipc	a4,0x2
    800003e4:	59070713          	addi	a4,a4,1424 # 80002970 <tests+0x850>
    800003e8:	00060e63          	beqz	a2,80000404 <vm_handler+0x11c>
    800003ec:	00002617          	auipc	a2,0x2
    800003f0:	62c60613          	addi	a2,a2,1580 # 80002a18 <tests+0x8f8>
    800003f4:	00002517          	auipc	a0,0x2
    800003f8:	5ac50513          	addi	a0,a0,1452 # 800029a0 <tests+0x880>
    800003fc:	6dc010ef          	jal	ra,80001ad8 <printf>
    80000400:	fa9ff06f          	j	800003a8 <vm_handler+0xc0>
    80000404:	00002717          	auipc	a4,0x2
    80000408:	61470713          	addi	a4,a4,1556 # 80002a18 <tests+0x8f8>
    8000040c:	00002617          	auipc	a2,0x2
    80000410:	60c60613          	addi	a2,a2,1548 # 80002a18 <tests+0x8f8>
    80000414:	00002517          	auipc	a0,0x2
    80000418:	58c50513          	addi	a0,a0,1420 # 800029a0 <tests+0x880>
    8000041c:	6bc010ef          	jal	ra,80001ad8 <printf>
    80000420:	f89ff06f          	j	800003a8 <vm_handler+0xc0>
    80000424:	00267613          	andi	a2,a2,2
    80000428:	00002697          	auipc	a3,0x2
    8000042c:	5f068693          	addi	a3,a3,1520 # 80002a18 <tests+0x8f8>
    80000430:	00002717          	auipc	a4,0x2
    80000434:	54070713          	addi	a4,a4,1344 # 80002970 <tests+0x850>
    80000438:	fa061ae3          	bnez	a2,800003ec <vm_handler+0x104>
    8000043c:	fc9ff06f          	j	80000404 <vm_handler+0x11c>
    80000440:	02800613          	li	a2,40
    80000444:	00002597          	auipc	a1,0x2
    80000448:	57458593          	addi	a1,a1,1396 # 800029b8 <tests+0x898>
    8000044c:	00002517          	auipc	a0,0x2
    80000450:	5b450513          	addi	a0,a0,1460 # 80002a00 <tests+0x8e0>
    80000454:	684010ef          	jal	ra,80001ad8 <printf>
    80000458:	00100513          	li	a0,1
    8000045c:	399000ef          	jal	ra,80000ff4 <halt>

0000000080000460 <vm_test>:
    80000460:	fd010113          	addi	sp,sp,-48
    80000464:	00300613          	li	a2,3
    80000468:	00002597          	auipc	a1,0x2
    8000046c:	5b858593          	addi	a1,a1,1464 # 80002a20 <tests+0x900>
    80000470:	00002517          	auipc	a0,0x2
    80000474:	5b850513          	addi	a0,a0,1464 # 80002a28 <tests+0x908>
    80000478:	02113423          	sd	ra,40(sp)
    8000047c:	02813023          	sd	s0,32(sp)
    80000480:	00913c23          	sd	s1,24(sp)
    80000484:	01213823          	sd	s2,16(sp)
    80000488:	368010ef          	jal	ra,800017f0 <strncmp>
    8000048c:	00050e63          	beqz	a0,800004a8 <vm_test+0x48>
    80000490:	00002597          	auipc	a1,0x2
    80000494:	5a058593          	addi	a1,a1,1440 # 80002a30 <tests+0x910>
    80000498:	00002517          	auipc	a0,0x2
    8000049c:	59050513          	addi	a0,a0,1424 # 80002a28 <tests+0x908>
    800004a0:	328010ef          	jal	ra,800017c8 <strcmp>
    800004a4:	10051063          	bnez	a0,800005a4 <vm_test+0x144>
    800004a8:	00011917          	auipc	s2,0x11
    800004ac:	2d890913          	addi	s2,s2,728 # 80011780 <prot>
    800004b0:	00090513          	mv	a0,s2
    800004b4:	2a4010ef          	jal	ra,80001758 <protect>
    800004b8:	01093603          	ld	a2,16(s2)
    800004bc:	00893583          	ld	a1,8(s2)
    800004c0:	00002517          	auipc	a0,0x2
    800004c4:	59850513          	addi	a0,a0,1432 # 80002a58 <tests+0x938>
    800004c8:	610010ef          	jal	ra,80001ad8 <printf>
    800004cc:	00893783          	ld	a5,8(s2)
    800004d0:	01093483          	ld	s1,16(s2)
    800004d4:	0009d697          	auipc	a3,0x9d
    800004d8:	4f468693          	addi	a3,a3,1268 # 8009d9c8 <st>
    800004dc:	0006b403          	ld	s0,0(a3)
    800004e0:	40f484b3          	sub	s1,s1,a5
    800004e4:	0014d493          	srli	s1,s1,0x1
    800004e8:	00092703          	lw	a4,0(s2)
    800004ec:	00f484b3          	add	s1,s1,a5
    800004f0:	00041c63          	bnez	s0,80000508 <vm_test+0xa8>
    800004f4:	00011417          	auipc	s0,0x11
    800004f8:	e6c43403          	ld	s0,-404(s0) # 80011360 <heap>
    800004fc:	02e477b3          	remu	a5,s0,a4
    80000500:	00078863          	beqz	a5,80000510 <vm_test+0xb0>
    80000504:	00140413          	addi	s0,s0,1
    80000508:	02e477b3          	remu	a5,s0,a4
    8000050c:	fe079ce3          	bnez	a5,80000504 <vm_test+0xa4>
    80000510:	00870733          	add	a4,a4,s0
    80000514:	00f00613          	li	a2,15
    80000518:	00011597          	auipc	a1,0x11
    8000051c:	e3058593          	addi	a1,a1,-464 # 80011348 <code>
    80000520:	00040513          	mv	a0,s0
    80000524:	00e6b023          	sd	a4,0(a3)
    80000528:	314010ef          	jal	ra,8000183c <memcpy>
    8000052c:	00300693          	li	a3,3
    80000530:	00040613          	mv	a2,s0
    80000534:	00048593          	mv	a1,s1
    80000538:	00011517          	auipc	a0,0x11
    8000053c:	24850513          	addi	a0,a0,584 # 80011780 <prot>
    80000540:	274010ef          	jal	ra,800017b4 <map>
    80000544:	00040613          	mv	a2,s0
    80000548:	00048593          	mv	a1,s1
    8000054c:	00002517          	auipc	a0,0x2
    80000550:	53450513          	addi	a0,a0,1332 # 80002a80 <tests+0x960>
    80000554:	584010ef          	jal	ra,80001ad8 <printf>
    80000558:	00048693          	mv	a3,s1
    8000055c:	00011597          	auipc	a1,0x11
    80000560:	24458593          	addi	a1,a1,580 # 800117a0 <stack.0>
    80000564:	00012617          	auipc	a2,0x12
    80000568:	23c60613          	addi	a2,a2,572 # 800127a0 <canvas>
    8000056c:	00011517          	auipc	a0,0x11
    80000570:	21450513          	addi	a0,a0,532 # 80011780 <prot>
    80000574:	244010ef          	jal	ra,800017b8 <ucontext>
    80000578:	00050793          	mv	a5,a0
    8000057c:	00100513          	li	a0,1
    80000580:	0009d717          	auipc	a4,0x9d
    80000584:	44f73823          	sd	a5,1104(a4) # 8009d9d0 <uctx>
    80000588:	7f5000ef          	jal	ra,8000157c <iset>
    8000058c:	02013403          	ld	s0,32(sp)
    80000590:	02813083          	ld	ra,40(sp)
    80000594:	01813483          	ld	s1,24(sp)
    80000598:	01013903          	ld	s2,16(sp)
    8000059c:	03010113          	addi	sp,sp,48
    800005a0:	7d10006f          	j	80001570 <yield>
    800005a4:	02013403          	ld	s0,32(sp)
    800005a8:	02813083          	ld	ra,40(sp)
    800005ac:	01813483          	ld	s1,24(sp)
    800005b0:	01013903          	ld	s2,16(sp)
    800005b4:	00002517          	auipc	a0,0x2
    800005b8:	48450513          	addi	a0,a0,1156 # 80002a38 <tests+0x918>
    800005bc:	03010113          	addi	sp,sp,48
    800005c0:	5180106f          	j	80001ad8 <printf>

00000000800005c4 <audio_test>:
    800005c4:	fc010113          	addi	sp,sp,-64
    800005c8:	00010593          	mv	a1,sp
    800005cc:	00e00513          	li	a0,14
    800005d0:	02113c23          	sd	ra,56(sp)
    800005d4:	02813823          	sd	s0,48(sp)
    800005d8:	02913423          	sd	s1,40(sp)
    800005dc:	03213023          	sd	s2,32(sp)
    800005e0:	01313c23          	sd	s3,24(sp)
    800005e4:	01413823          	sd	s4,16(sp)
    800005e8:	329000ef          	jal	ra,80001110 <ioe_read>
    800005ec:	00014783          	lbu	a5,0(sp)
    800005f0:	0c078c63          	beqz	a5,800006c8 <audio_test+0x104>
    800005f4:	040007b7          	lui	a5,0x4000
    800005f8:	07d78793          	addi	a5,a5,125 # 400007d <_entry_offset+0x400007d>
    800005fc:	00679793          	slli	a5,a5,0x6
    80000600:	00003497          	auipc	s1,0x3
    80000604:	f3848493          	addi	s1,s1,-200 # 80003538 <audio_payload>
    80000608:	00011917          	auipc	s2,0x11
    8000060c:	d3c90913          	addi	s2,s2,-708 # 80011344 <_data>
    80000610:	00f13023          	sd	a5,0(sp)
    80000614:	00010593          	mv	a1,sp
    80000618:	40000793          	li	a5,1024
    8000061c:	00f00513          	li	a0,15
    80000620:	4099093b          	subw	s2,s2,s1
    80000624:	00f12423          	sw	a5,8(sp)
    80000628:	305000ef          	jal	ra,8000112c <ioe_write>
    8000062c:	06090463          	beqz	s2,80000694 <audio_test+0xd0>
    80000630:	00000413          	li	s0,0
    80000634:	00000793          	li	a5,0
    80000638:	00001a37          	lui	s4,0x1
    8000063c:	00002997          	auipc	s3,0x2
    80000640:	4ac98993          	addi	s3,s3,1196 # 80002ae8 <tests+0x9c8>
    80000644:	40f907bb          	subw	a5,s2,a5
    80000648:	0007869b          	sext.w	a3,a5
    8000064c:	00048713          	mv	a4,s1
    80000650:	00010593          	mv	a1,sp
    80000654:	01100513          	li	a0,17
    80000658:	00da7463          	bgeu	s4,a3,80000660 <audio_test+0x9c>
    8000065c:	000017b7          	lui	a5,0x1
    80000660:	02079693          	slli	a3,a5,0x20
    80000664:	0206d693          	srli	a3,a3,0x20
    80000668:	00d484b3          	add	s1,s1,a3
    8000066c:	0087843b          	addw	s0,a5,s0
    80000670:	00e13023          	sd	a4,0(sp)
    80000674:	00913423          	sd	s1,8(sp)
    80000678:	2b5000ef          	jal	ra,8000112c <ioe_write>
    8000067c:	00090613          	mv	a2,s2
    80000680:	00040593          	mv	a1,s0
    80000684:	00098513          	mv	a0,s3
    80000688:	450010ef          	jal	ra,80001ad8 <printf>
    8000068c:	00040793          	mv	a5,s0
    80000690:	fb246ae3          	bltu	s0,s2,80000644 <audio_test+0x80>
    80000694:	00010593          	mv	a1,sp
    80000698:	01000513          	li	a0,16
    8000069c:	275000ef          	jal	ra,80001110 <ioe_read>
    800006a0:	00012783          	lw	a5,0(sp)
    800006a4:	fef048e3          	bgtz	a5,80000694 <audio_test+0xd0>
    800006a8:	03813083          	ld	ra,56(sp)
    800006ac:	03013403          	ld	s0,48(sp)
    800006b0:	02813483          	ld	s1,40(sp)
    800006b4:	02013903          	ld	s2,32(sp)
    800006b8:	01813983          	ld	s3,24(sp)
    800006bc:	01013a03          	ld	s4,16(sp)
    800006c0:	04010113          	addi	sp,sp,64
    800006c4:	00008067          	ret
    800006c8:	03013403          	ld	s0,48(sp)
    800006cc:	03813083          	ld	ra,56(sp)
    800006d0:	02813483          	ld	s1,40(sp)
    800006d4:	02013903          	ld	s2,32(sp)
    800006d8:	01813983          	ld	s3,24(sp)
    800006dc:	01013a03          	ld	s4,16(sp)
    800006e0:	00002597          	auipc	a1,0x2
    800006e4:	3d058593          	addi	a1,a1,976 # 80002ab0 <tests+0x990>
    800006e8:	00002517          	auipc	a0,0x2
    800006ec:	3d850513          	addi	a0,a0,984 # 80002ac0 <tests+0x9a0>
    800006f0:	04010113          	addi	sp,sp,64
    800006f4:	3e40106f          	j	80001ad8 <printf>

00000000800006f8 <simple_trap>:
    800006f8:	00052783          	lw	a5,0(a0)
    800006fc:	ff010113          	addi	sp,sp,-16
    80000700:	00813023          	sd	s0,0(sp)
    80000704:	00113423          	sd	ra,8(sp)
    80000708:	00500713          	li	a4,5
    8000070c:	00058413          	mv	s0,a1
    80000710:	02e78463          	beq	a5,a4,80000738 <simple_trap+0x40>
    80000714:	00600713          	li	a4,6
    80000718:	04e78c63          	beq	a5,a4,80000770 <simple_trap+0x78>
    8000071c:	00100713          	li	a4,1
    80000720:	02e78a63          	beq	a5,a4,80000754 <simple_trap+0x5c>
    80000724:	00813083          	ld	ra,8(sp)
    80000728:	00040513          	mv	a0,s0
    8000072c:	00013403          	ld	s0,0(sp)
    80000730:	01010113          	addi	sp,sp,16
    80000734:	00008067          	ret
    80000738:	07400513          	li	a0,116
    8000073c:	0a9000ef          	jal	ra,80000fe4 <putch>
    80000740:	00813083          	ld	ra,8(sp)
    80000744:	00040513          	mv	a0,s0
    80000748:	00013403          	ld	s0,0(sp)
    8000074c:	01010113          	addi	sp,sp,16
    80000750:	00008067          	ret
    80000754:	07900513          	li	a0,121
    80000758:	08d000ef          	jal	ra,80000fe4 <putch>
    8000075c:	00813083          	ld	ra,8(sp)
    80000760:	00040513          	mv	a0,s0
    80000764:	00013403          	ld	s0,0(sp)
    80000768:	01010113          	addi	sp,sp,16
    8000076c:	00008067          	ret
    80000770:	06400513          	li	a0,100
    80000774:	071000ef          	jal	ra,80000fe4 <putch>
    80000778:	00813083          	ld	ra,8(sp)
    8000077c:	00040513          	mv	a0,s0
    80000780:	00013403          	ld	s0,0(sp)
    80000784:	01010113          	addi	sp,sp,16
    80000788:	00008067          	ret

000000008000078c <hello_intr>:
    8000078c:	fd010113          	addi	sp,sp,-48
    80000790:	00002517          	auipc	a0,0x2
    80000794:	38050513          	addi	a0,a0,896 # 80002b10 <tests+0x9f0>
    80000798:	02113423          	sd	ra,40(sp)
    8000079c:	02813023          	sd	s0,32(sp)
    800007a0:	00913c23          	sd	s1,24(sp)
    800007a4:	334010ef          	jal	ra,80001ad8 <printf>
    800007a8:	00002517          	auipc	a0,0x2
    800007ac:	38850513          	addi	a0,a0,904 # 80002b30 <tests+0xa10>
    800007b0:	328010ef          	jal	ra,80001ad8 <printf>
    800007b4:	00810593          	addi	a1,sp,8
    800007b8:	00700513          	li	a0,7
    800007bc:	155000ef          	jal	ra,80001110 <ioe_read>
    800007c0:	00100513          	li	a0,1
    800007c4:	5b9000ef          	jal	ra,8000157c <iset>
    800007c8:	00003517          	auipc	a0,0x3
    800007cc:	b1050513          	addi	a0,a0,-1264 # 800032d8 <names+0x318>
    800007d0:	308010ef          	jal	ra,80001ad8 <printf>
    800007d4:	3e700413          	li	s0,999
    800007d8:	00003497          	auipc	s1,0x3
    800007dc:	b0048493          	addi	s1,s1,-1280 # 800032d8 <names+0x318>
    800007e0:	00012423          	sw	zero,8(sp)
    800007e4:	00812783          	lw	a5,8(sp)
    800007e8:	00f44c63          	blt	s0,a5,80000800 <hello_intr+0x74>
    800007ec:	00812783          	lw	a5,8(sp)
    800007f0:	0017879b          	addiw	a5,a5,1 # 1001 <_entry_offset+0x1001>
    800007f4:	00f12423          	sw	a5,8(sp)
    800007f8:	00812783          	lw	a5,8(sp)
    800007fc:	fef458e3          	bge	s0,a5,800007ec <hello_intr+0x60>
    80000800:	571000ef          	jal	ra,80001570 <yield>
    80000804:	00048513          	mv	a0,s1
    80000808:	2d0010ef          	jal	ra,80001ad8 <printf>
    8000080c:	fd5ff06f          	j	800007e0 <hello_intr+0x54>

0000000080000810 <hello>:
    80000810:	fe010113          	addi	sp,sp,-32
    80000814:	00913423          	sd	s1,8(sp)
    80000818:	00113c23          	sd	ra,24(sp)
    8000081c:	00813823          	sd	s0,16(sp)
    80000820:	00a00493          	li	s1,10
    80000824:	00002417          	auipc	s0,0x2
    80000828:	2ec40413          	addi	s0,s0,748 # 80002b10 <tests+0x9f0>
    8000082c:	04800513          	li	a0,72
    80000830:	00140413          	addi	s0,s0,1
    80000834:	7b0000ef          	jal	ra,80000fe4 <putch>
    80000838:	00044503          	lbu	a0,0(s0)
    8000083c:	fe051ae3          	bnez	a0,80000830 <hello+0x20>
    80000840:	fff4849b          	addiw	s1,s1,-1
    80000844:	fe0490e3          	bnez	s1,80000824 <hello+0x14>
    80000848:	01813083          	ld	ra,24(sp)
    8000084c:	01013403          	ld	s0,16(sp)
    80000850:	00813483          	ld	s1,8(sp)
    80000854:	02010113          	addi	sp,sp,32
    80000858:	00008067          	ret

000000008000085c <redraw>:
    8000085c:	f7010113          	addi	sp,sp,-144
    80000860:	00010593          	mv	a1,sp
    80000864:	00900513          	li	a0,9
    80000868:	08113423          	sd	ra,136(sp)
    8000086c:	08813023          	sd	s0,128(sp)
    80000870:	07213823          	sd	s2,112(sp)
    80000874:	05513c23          	sd	s5,88(sp)
    80000878:	05613823          	sd	s6,80(sp)
    8000087c:	06913c23          	sd	s1,120(sp)
    80000880:	07313423          	sd	s3,104(sp)
    80000884:	07413023          	sd	s4,96(sp)
    80000888:	05713423          	sd	s7,72(sp)
    8000088c:	05813023          	sd	s8,64(sp)
    80000890:	03913c23          	sd	s9,56(sp)
    80000894:	03a13823          	sd	s10,48(sp)
    80000898:	03b13423          	sd	s11,40(sp)
    8000089c:	075000ef          	jal	ra,80001110 <ioe_read>
    800008a0:	00412783          	lw	a5,4(sp)
    800008a4:	00010593          	mv	a1,sp
    800008a8:	00900513          	li	a0,9
    800008ac:	41f7d41b          	sraiw	s0,a5,0x1f
    800008b0:	01b4541b          	srliw	s0,s0,0x1b
    800008b4:	00f4043b          	addw	s0,s0,a5
    800008b8:	059000ef          	jal	ra,80001110 <ioe_read>
    800008bc:	00812783          	lw	a5,8(sp)
    800008c0:	40545a9b          	sraiw	s5,s0,0x5
    800008c4:	40000713          	li	a4,1024
    800008c8:	41f7d91b          	sraiw	s2,a5,0x1f
    800008cc:	01b9591b          	srliw	s2,s2,0x1b
    800008d0:	00f9093b          	addw	s2,s2,a5
    800008d4:	4059591b          	sraiw	s2,s2,0x5
    800008d8:	032a8b3b          	mulw	s6,s5,s2
    800008dc:	0f676c63          	bltu	a4,s6,800009d4 <redraw+0x178>
    800008e0:	fffb041b          	addiw	s0,s6,-1
    800008e4:	02041793          	slli	a5,s0,0x20
    800008e8:	01e7d413          	srli	s0,a5,0x1e
    800008ec:	00013797          	auipc	a5,0x13
    800008f0:	eb878793          	addi	a5,a5,-328 # 800137a4 <color_buf+0x4>
    800008f4:	00012997          	auipc	s3,0x12
    800008f8:	f2c98993          	addi	s3,s3,-212 # 80012820 <canvas+0x80>
    800008fc:	00013c17          	auipc	s8,0x13
    80000900:	f24c0c13          	addi	s8,s8,-220 # 80013820 <color_buf+0x80>
    80000904:	00013497          	auipc	s1,0x13
    80000908:	e9c48493          	addi	s1,s1,-356 # 800137a0 <color_buf>
    8000090c:	00f40433          	add	s0,s0,a5
    80000910:	00000c93          	li	s9,0
    80000914:	000a8b9b          	sext.w	s7,s5
    80000918:	000c8a1b          	sext.w	s4,s9
    8000091c:	f8098d13          	addi	s10,s3,-128
    80000920:	00000d93          	li	s11,0
    80000924:	000b0c63          	beqz	s6,8000093c <redraw+0xe0>
    80000928:	000d2703          	lw	a4,0(s10)
    8000092c:	00048793          	mv	a5,s1
    80000930:	00e7a023          	sw	a4,0(a5)
    80000934:	00478793          	addi	a5,a5,4
    80000938:	fe879ce3          	bne	a5,s0,80000930 <redraw+0xd4>
    8000093c:	004d0d13          	addi	s10,s10,4
    80000940:	00010593          	mv	a1,sp
    80000944:	00b00513          	li	a0,11
    80000948:	01b12023          	sw	s11,0(sp)
    8000094c:	01412223          	sw	s4,4(sp)
    80000950:	00913423          	sd	s1,8(sp)
    80000954:	01512823          	sw	s5,16(sp)
    80000958:	01212a23          	sw	s2,20(sp)
    8000095c:	00010c23          	sb	zero,24(sp)
    80000960:	017d8dbb          	addw	s11,s11,s7
    80000964:	7c8000ef          	jal	ra,8000112c <ioe_write>
    80000968:	fb3d1ee3          	bne	s10,s3,80000924 <redraw+0xc8>
    8000096c:	080d0993          	addi	s3,s10,128
    80000970:	01990cbb          	addw	s9,s2,s9
    80000974:	fb8992e3          	bne	s3,s8,80000918 <redraw+0xbc>
    80000978:	00010593          	mv	a1,sp
    8000097c:	00100793          	li	a5,1
    80000980:	00b00513          	li	a0,11
    80000984:	00013023          	sd	zero,0(sp)
    80000988:	00013423          	sd	zero,8(sp)
    8000098c:	00013823          	sd	zero,16(sp)
    80000990:	00f10c23          	sb	a5,24(sp)
    80000994:	798000ef          	jal	ra,8000112c <ioe_write>
    80000998:	08813083          	ld	ra,136(sp)
    8000099c:	08013403          	ld	s0,128(sp)
    800009a0:	07813483          	ld	s1,120(sp)
    800009a4:	07013903          	ld	s2,112(sp)
    800009a8:	06813983          	ld	s3,104(sp)
    800009ac:	06013a03          	ld	s4,96(sp)
    800009b0:	05813a83          	ld	s5,88(sp)
    800009b4:	05013b03          	ld	s6,80(sp)
    800009b8:	04813b83          	ld	s7,72(sp)
    800009bc:	04013c03          	ld	s8,64(sp)
    800009c0:	03813c83          	ld	s9,56(sp)
    800009c4:	03013d03          	ld	s10,48(sp)
    800009c8:	02813d83          	ld	s11,40(sp)
    800009cc:	09010113          	addi	sp,sp,144
    800009d0:	00008067          	ret
    800009d4:	01600613          	li	a2,22
    800009d8:	00002597          	auipc	a1,0x2
    800009dc:	18058593          	addi	a1,a1,384 # 80002b58 <tests+0xa38>
    800009e0:	00002517          	auipc	a0,0x2
    800009e4:	02050513          	addi	a0,a0,32 # 80002a00 <tests+0x8e0>
    800009e8:	0f0010ef          	jal	ra,80001ad8 <printf>
    800009ec:	00100513          	li	a0,1
    800009f0:	604000ef          	jal	ra,80000ff4 <halt>

00000000800009f4 <update>:
    800009f4:	0009d617          	auipc	a2,0x9d
    800009f8:	fe460613          	addi	a2,a2,-28 # 8009d9d8 <tsc.2>
    800009fc:	00062783          	lw	a5,0(a2)
    80000a00:	fe010113          	addi	sp,sp,-32
    80000a04:	00813c23          	sd	s0,24(sp)
    80000a08:	00913823          	sd	s1,16(sp)
    80000a0c:	01213423          	sd	s2,8(sp)
    80000a10:	01313023          	sd	s3,0(sp)
    80000a14:	0017839b          	addiw	t2,a5,1
    80000a18:	00014717          	auipc	a4,0x14
    80000a1c:	e0870713          	addi	a4,a4,-504 # 80014820 <used+0x80>
    80000a20:	00015697          	auipc	a3,0x15
    80000a24:	e0068693          	addi	a3,a3,-512 # 80015820 <buf.0+0x80>
    80000a28:	00762023          	sw	t2,0(a2)
    80000a2c:	f8070793          	addi	a5,a4,-128
    80000a30:	0007a023          	sw	zero,0(a5)
    80000a34:	00478793          	addi	a5,a5,4
    80000a38:	fef71ce3          	bne	a4,a5,80000a30 <update+0x3c>
    80000a3c:	08070713          	addi	a4,a4,128
    80000a40:	fed716e3          	bne	a4,a3,80000a2c <update+0x38>
    80000a44:	0ff3f693          	zext.b	a3,t2
    80000a48:	0016979b          	slliw	a5,a3,0x1
    80000a4c:	00d787bb          	addw	a5,a5,a3
    80000a50:	0036971b          	slliw	a4,a3,0x3
    80000a54:	0017979b          	slliw	a5,a5,0x1
    80000a58:	40d7073b          	subw	a4,a4,a3
    80000a5c:	0ff7f793          	zext.b	a5,a5
    80000a60:	0ff77713          	zext.b	a4,a4
    80000a64:	0087171b          	slliw	a4,a4,0x8
    80000a68:	0107979b          	slliw	a5,a5,0x10
    80000a6c:	00e7e7b3          	or	a5,a5,a4
    80000a70:	0ff3f713          	zext.b	a4,t2
    80000a74:	00e7e7b3          	or	a5,a5,a4
    80000a78:	00012417          	auipc	s0,0x12
    80000a7c:	d2840413          	addi	s0,s0,-728 # 800127a0 <canvas>
    80000a80:	00014e97          	auipc	t4,0x14
    80000a84:	d20e8e93          	addi	t4,t4,-736 # 800147a0 <used>
    80000a88:	00f42023          	sw	a5,0(s0)
    80000a8c:	00100793          	li	a5,1
    80000a90:	00fea023          	sw	a5,0(t4)
    80000a94:	00100713          	li	a4,1
    80000a98:	00000793          	li	a5,0
    80000a9c:	00100f93          	li	t6,1
    80000aa0:	00000593          	li	a1,0
    80000aa4:	00000913          	li	s2,0
    80000aa8:	00000e13          	li	t3,0
    80000aac:	01f00f13          	li	t5,31
    80000ab0:	00002317          	auipc	t1,0x2
    80000ab4:	10030313          	addi	t1,t1,256 # 80002bb0 <dx.1>
    80000ab8:	00002897          	auipc	a7,0x2
    80000abc:	10888893          	addi	a7,a7,264 # 80002bc0 <dy.0>
    80000ac0:	00100493          	li	s1,1
    80000ac4:	40000293          	li	t0,1024
    80000ac8:	00400693          	li	a3,4
    80000acc:	00fe063b          	addw	a2,t3,a5
    80000ad0:	00e9073b          	addw	a4,s2,a4
    80000ad4:	00561793          	slli	a5,a2,0x5
    80000ad8:	00e787b3          	add	a5,a5,a4
    80000adc:	00279793          	slli	a5,a5,0x2
    80000ae0:	00e66533          	or	a0,a2,a4
    80000ae4:	00fe89b3          	add	s3,t4,a5
    80000ae8:	00158813          	addi	a6,a1,1
    80000aec:	fff6869b          	addiw	a3,a3,-1
    80000af0:	00af6663          	bltu	t5,a0,80000afc <update+0x108>
    80000af4:	0009a503          	lw	a0,0(s3)
    80000af8:	02050263          	beqz	a0,80000b1c <update+0x128>
    80000afc:	00387593          	andi	a1,a6,3
    80000b00:	00259793          	slli	a5,a1,0x2
    80000b04:	00f30633          	add	a2,t1,a5
    80000b08:	00f88733          	add	a4,a7,a5
    80000b0c:	06068063          	beqz	a3,80000b6c <update+0x178>
    80000b10:	00062783          	lw	a5,0(a2)
    80000b14:	00072703          	lw	a4,0(a4)
    80000b18:	fb5ff06f          	j	80000acc <update+0xd8>
    80000b1c:	401fd81b          	sraiw	a6,t6,0x1
    80000b20:	0078083b          	addw	a6,a6,t2
    80000b24:	0ff87e13          	zext.b	t3,a6
    80000b28:	001e151b          	slliw	a0,t3,0x1
    80000b2c:	01c5053b          	addw	a0,a0,t3
    80000b30:	003e169b          	slliw	a3,t3,0x3
    80000b34:	41c686bb          	subw	a3,a3,t3
    80000b38:	0015151b          	slliw	a0,a0,0x1
    80000b3c:	0ff57513          	zext.b	a0,a0
    80000b40:	0ff6f693          	zext.b	a3,a3
    80000b44:	0086969b          	slliw	a3,a3,0x8
    80000b48:	0105151b          	slliw	a0,a0,0x10
    80000b4c:	00d56533          	or	a0,a0,a3
    80000b50:	0ff87813          	zext.b	a6,a6
    80000b54:	00f406b3          	add	a3,s0,a5
    80000b58:	010567b3          	or	a5,a0,a6
    80000b5c:	0099a023          	sw	s1,0(s3)
    80000b60:	00f6a023          	sw	a5,0(a3)
    80000b64:	00070913          	mv	s2,a4
    80000b68:	00060e13          	mv	t3,a2
    80000b6c:	001f8f9b          	addiw	t6,t6,1
    80000b70:	005f8e63          	beq	t6,t0,80000b8c <update+0x198>
    80000b74:	00259793          	slli	a5,a1,0x2
    80000b78:	00f88733          	add	a4,a7,a5
    80000b7c:	00f306b3          	add	a3,t1,a5
    80000b80:	0006a783          	lw	a5,0(a3)
    80000b84:	00072703          	lw	a4,0(a4)
    80000b88:	f41ff06f          	j	80000ac8 <update+0xd4>
    80000b8c:	01813403          	ld	s0,24(sp)
    80000b90:	01013483          	ld	s1,16(sp)
    80000b94:	00813903          	ld	s2,8(sp)
    80000b98:	00013983          	ld	s3,0(sp)
    80000b9c:	02010113          	addi	sp,sp,32
    80000ba0:	00008067          	ret

0000000080000ba4 <video_test>:
    80000ba4:	fb010113          	addi	sp,sp,-80
    80000ba8:	02913c23          	sd	s1,56(sp)
    80000bac:	03213823          	sd	s2,48(sp)
    80000bb0:	03313423          	sd	s3,40(sp)
    80000bb4:	03413023          	sd	s4,32(sp)
    80000bb8:	01513c23          	sd	s5,24(sp)
    80000bbc:	01613823          	sd	s6,16(sp)
    80000bc0:	04113423          	sd	ra,72(sp)
    80000bc4:	04813023          	sd	s0,64(sp)
    80000bc8:	00000a13          	li	s4,0
    80000bcc:	00000993          	li	s3,0
    80000bd0:	00000913          	li	s2,0
    80000bd4:	3e800493          	li	s1,1000
    80000bd8:	02100a93          	li	s5,33
    80000bdc:	00002b17          	auipc	s6,0x2
    80000be0:	fc4b0b13          	addi	s6,s6,-60 # 80002ba0 <tests+0xa80>
    80000be4:	00810593          	addi	a1,sp,8
    80000be8:	00600513          	li	a0,6
    80000bec:	524000ef          	jal	ra,80001110 <ioe_read>
    80000bf0:	00813403          	ld	s0,8(sp)
    80000bf4:	02945433          	divu	s0,s0,s1
    80000bf8:	412407b3          	sub	a5,s0,s2
    80000bfc:	04fae063          	bltu	s5,a5,80000c3c <video_test+0x98>
    80000c00:	413407b3          	sub	a5,s0,s3
    80000c04:	fef4f0e3          	bgeu	s1,a5,80000be4 <video_test+0x40>
    80000c08:	000a0613          	mv	a2,s4
    80000c0c:	00040593          	mv	a1,s0
    80000c10:	000b0513          	mv	a0,s6
    80000c14:	6c5000ef          	jal	ra,80001ad8 <printf>
    80000c18:	00810593          	addi	a1,sp,8
    80000c1c:	00600513          	li	a0,6
    80000c20:	4f0000ef          	jal	ra,80001110 <ioe_read>
    80000c24:	00040993          	mv	s3,s0
    80000c28:	00813403          	ld	s0,8(sp)
    80000c2c:	00000a13          	li	s4,0
    80000c30:	02945433          	divu	s0,s0,s1
    80000c34:	412407b3          	sub	a5,s0,s2
    80000c38:	fcfaf4e3          	bgeu	s5,a5,80000c00 <video_test+0x5c>
    80000c3c:	db9ff0ef          	jal	ra,800009f4 <update>
    80000c40:	001a0a1b          	addiw	s4,s4,1 # 1001 <_entry_offset+0x1001>
    80000c44:	c19ff0ef          	jal	ra,8000085c <redraw>
    80000c48:	00040913          	mv	s2,s0
    80000c4c:	fb5ff06f          	j	80000c00 <video_test+0x5c>

0000000080000c50 <mp_print>:
    80000c50:	ff010113          	addi	sp,sp,-16
    80000c54:	00813023          	sd	s0,0(sp)
    80000c58:	00113423          	sd	ra,8(sp)
    80000c5c:	00002417          	auipc	s0,0x2
    80000c60:	f7440413          	addi	s0,s0,-140 # 80002bd0 <dy.0+0x10>
    80000c64:	009000ef          	jal	ra,8000146c <cpu_current>
    80000c68:	00050593          	mv	a1,a0
    80000c6c:	00040513          	mv	a0,s0
    80000c70:	669000ef          	jal	ra,80001ad8 <printf>
    80000c74:	ff1ff06f          	j	80000c64 <mp_print+0x14>

0000000080000c78 <devscan>:
    80000c78:	00010797          	auipc	a5,0x10
    80000c7c:	6e878793          	addi	a5,a5,1768 # 80011360 <heap>
    80000c80:	0007b583          	ld	a1,0(a5)
    80000c84:	0087b603          	ld	a2,8(a5)
    80000c88:	fb010113          	addi	sp,sp,-80
    80000c8c:	00002517          	auipc	a0,0x2
    80000c90:	f4c50513          	addi	a0,a0,-180 # 80002bd8 <dy.0+0x18>
    80000c94:	04113423          	sd	ra,72(sp)
    80000c98:	03213823          	sd	s2,48(sp)
    80000c9c:	04813023          	sd	s0,64(sp)
    80000ca0:	02913c23          	sd	s1,56(sp)
    80000ca4:	03313423          	sd	s3,40(sp)
    80000ca8:	03413023          	sd	s4,32(sp)
    80000cac:	62d000ef          	jal	ra,80001ad8 <printf>
    80000cb0:	00002517          	auipc	a0,0x2
    80000cb4:	f4050513          	addi	a0,a0,-192 # 80002bf0 <dy.0+0x30>
    80000cb8:	621000ef          	jal	ra,80001ad8 <printf>
    80000cbc:	00810593          	addi	a1,sp,8
    80000cc0:	00600513          	li	a0,6
    80000cc4:	44c000ef          	jal	ra,80001110 <ioe_read>
    80000cc8:	00813903          	ld	s2,8(sp)
    80000ccc:	3e800793          	li	a5,1000
    80000cd0:	00012223          	sw	zero,4(sp)
    80000cd4:	02f95933          	divu	s2,s2,a5
    80000cd8:	00412783          	lw	a5,4(sp)
    80000cdc:	00989737          	lui	a4,0x989
    80000ce0:	67f70713          	addi	a4,a4,1663 # 98967f <_entry_offset+0x98967f>
    80000ce4:	0009091b          	sext.w	s2,s2
    80000ce8:	00f74c63          	blt	a4,a5,80000d00 <devscan+0x88>
    80000cec:	00412783          	lw	a5,4(sp)
    80000cf0:	0017879b          	addiw	a5,a5,1
    80000cf4:	00f12223          	sw	a5,4(sp)
    80000cf8:	00412783          	lw	a5,4(sp)
    80000cfc:	fef758e3          	bge	a4,a5,80000cec <devscan+0x74>
    80000d00:	00810593          	addi	a1,sp,8
    80000d04:	00600513          	li	a0,6
    80000d08:	408000ef          	jal	ra,80001110 <ioe_read>
    80000d0c:	00813583          	ld	a1,8(sp)
    80000d10:	3e800793          	li	a5,1000
    80000d14:	00002517          	auipc	a0,0x2
    80000d18:	efc50513          	addi	a0,a0,-260 # 80002c10 <dy.0+0x50>
    80000d1c:	02f5d5b3          	divu	a1,a1,a5
    80000d20:	00015417          	auipc	s0,0x15
    80000d24:	d5040413          	addi	s0,s0,-688 # 80015a70 <vmem+0xd0>
    80000d28:	00095497          	auipc	s1,0x95
    80000d2c:	c7848493          	addi	s1,s1,-904 # 800959a0 <kas>
    80000d30:	412585bb          	subw	a1,a1,s2
    80000d34:	5a5000ef          	jal	ra,80001ad8 <printf>
    80000d38:	00810593          	addi	a1,sp,8
    80000d3c:	00900513          	li	a0,9
    80000d40:	3d0000ef          	jal	ra,80001110 <ioe_read>
    80000d44:	00c12983          	lw	s3,12(sp)
    80000d48:	01012903          	lw	s2,16(sp)
    80000d4c:	00002517          	auipc	a0,0x2
    80000d50:	ee450513          	addi	a0,a0,-284 # 80002c30 <dy.0+0x70>
    80000d54:	00098593          	mv	a1,s3
    80000d58:	00090613          	mv	a2,s2
    80000d5c:	57d000ef          	jal	ra,80001ad8 <printf>
    80000d60:	238010ef          	jal	ra,80001f98 <rand>
    80000d64:	00a40023          	sb	a0,0(s0)
    80000d68:	00140413          	addi	s0,s0,1
    80000d6c:	fe941ae3          	bne	s0,s1,80000d60 <devscan+0xe8>
    80000d70:	41f9d71b          	sraiw	a4,s3,0x1f
    80000d74:	01e7571b          	srliw	a4,a4,0x1e
    80000d78:	0137073b          	addw	a4,a4,s3
    80000d7c:	00015797          	auipc	a5,0x15
    80000d80:	c2478793          	addi	a5,a5,-988 # 800159a0 <vmem>
    80000d84:	4027571b          	sraiw	a4,a4,0x2
    80000d88:	00e79323          	sh	a4,6(a5)
    80000d8c:	00015717          	auipc	a4,0x15
    80000d90:	c0071e23          	sh	zero,-996(a4) # 800159a8 <vmem+0x8>
    80000d94:	01f9d69b          	srliw	a3,s3,0x1f
    80000d98:	02500713          	li	a4,37
    80000d9c:	00e79923          	sh	a4,18(a5)
    80000da0:	013686bb          	addw	a3,a3,s3
    80000da4:	00a00713          	li	a4,10
    80000da8:	ffff0837          	lui	a6,0xffff0
    80000dac:	fff00613          	li	a2,-1
    80000db0:	4016d69b          	sraiw	a3,a3,0x1
    80000db4:	00180813          	addi	a6,a6,1 # ffffffffffff0001 <_end+0xffffffff7ff4a001>
    80000db8:	00e79a23          	sh	a4,20(a5)
    80000dbc:	f9c9091b          	addiw	s2,s2,-100
    80000dc0:	0d000713          	li	a4,208
    80000dc4:	00e79b23          	sh	a4,22(a5)
    80000dc8:	0107a023          	sw	a6,0(a5)
    80000dcc:	00d79523          	sh	a3,10(a5)
    80000dd0:	00c79223          	sh	a2,4(a5)
    80000dd4:	00c79723          	sh	a2,14(a5)
    80000dd8:	00c79823          	sh	a2,16(a5)
    80000ddc:	01279623          	sh	s2,12(a5)
    80000de0:	00810593          	addi	a1,sp,8
    80000de4:	00c00513          	li	a0,12
    80000de8:	00f13823          	sd	a5,16(sp)
    80000dec:	000807b7          	lui	a5,0x80
    80000df0:	00f12c23          	sw	a5,24(sp)
    80000df4:	00015717          	auipc	a4,0x15
    80000df8:	bc071223          	sh	zero,-1084(a4) # 800159b8 <vmem+0x18>
    80000dfc:	00012423          	sw	zero,8(sp)
    80000e00:	32c000ef          	jal	ra,8000112c <ioe_write>
    80000e04:	00d00513          	li	a0,13
    80000e08:	00810593          	addi	a1,sp,8
    80000e0c:	00012423          	sw	zero,8(sp)
    80000e10:	31c000ef          	jal	ra,8000112c <ioe_write>
    80000e14:	00810593          	addi	a1,sp,8
    80000e18:	01200513          	li	a0,18
    80000e1c:	2f4000ef          	jal	ra,80001110 <ioe_read>
    80000e20:	00c12403          	lw	s0,12(sp)
    80000e24:	01012583          	lw	a1,16(sp)
    80000e28:	00002517          	auipc	a0,0x2
    80000e2c:	e2050513          	addi	a0,a0,-480 # 80002c48 <dy.0+0x88>
    80000e30:	00040613          	mv	a2,s0
    80000e34:	4a5000ef          	jal	ra,80001ad8 <printf>
    80000e38:	20000793          	li	a5,512
    80000e3c:	0287c7bb          	divw	a5,a5,s0
    80000e40:	00015497          	auipc	s1,0x15
    80000e44:	96048493          	addi	s1,s1,-1696 # 800157a0 <buf.0>
    80000e48:	00810593          	addi	a1,sp,8
    80000e4c:	01400513          	li	a0,20
    80000e50:	00913823          	sd	s1,16(sp)
    80000e54:	00010423          	sb	zero,8(sp)
    80000e58:	00012c23          	sw	zero,24(sp)
    80000e5c:	00002917          	auipc	s2,0x2
    80000e60:	e2490913          	addi	s2,s2,-476 # 80002c80 <dy.0+0xc0>
    80000e64:	00015417          	auipc	s0,0x15
    80000e68:	93e40413          	addi	s0,s0,-1730 # 800157a2 <buf.0+0x2>
    80000e6c:	00015997          	auipc	s3,0x15
    80000e70:	b3498993          	addi	s3,s3,-1228 # 800159a0 <vmem>
    80000e74:	00002a17          	auipc	s4,0x2
    80000e78:	464a0a13          	addi	s4,s4,1124 # 800032d8 <names+0x318>
    80000e7c:	00f12e23          	sw	a5,28(sp)
    80000e80:	2ac000ef          	jal	ra,8000112c <ioe_write>
    80000e84:	0014c603          	lbu	a2,1(s1)
    80000e88:	0004c583          	lbu	a1,0(s1)
    80000e8c:	00090513          	mv	a0,s2
    80000e90:	00400493          	li	s1,4
    80000e94:	445000ef          	jal	ra,80001ad8 <printf>
    80000e98:	408484bb          	subw	s1,s1,s0
    80000e9c:	00090513          	mv	a0,s2
    80000ea0:	03340463          	beq	s0,s3,80000ec8 <devscan+0x250>
    80000ea4:	00144603          	lbu	a2,1(s0)
    80000ea8:	00044583          	lbu	a1,0(s0)
    80000eac:	42d000ef          	jal	ra,80001ad8 <printf>
    80000eb0:	008487bb          	addw	a5,s1,s0
    80000eb4:	01f7f793          	andi	a5,a5,31
    80000eb8:	02078063          	beqz	a5,80000ed8 <devscan+0x260>
    80000ebc:	00240413          	addi	s0,s0,2
    80000ec0:	00090513          	mv	a0,s2
    80000ec4:	ff3410e3          	bne	s0,s3,80000ea4 <devscan+0x22c>
    80000ec8:	00002517          	auipc	a0,0x2
    80000ecc:	dc850513          	addi	a0,a0,-568 # 80002c90 <dy.0+0xd0>
    80000ed0:	409000ef          	jal	ra,80001ad8 <printf>
    80000ed4:	0000006f          	j	80000ed4 <devscan+0x25c>
    80000ed8:	000a0513          	mv	a0,s4
    80000edc:	3fd000ef          	jal	ra,80001ad8 <printf>
    80000ee0:	00240413          	addi	s0,s0,2
    80000ee4:	fddff06f          	j	80000ec0 <devscan+0x248>

0000000080000ee8 <keyboard_test>:
    80000ee8:	fb010113          	addi	sp,sp,-80
    80000eec:	00002517          	auipc	a0,0x2
    80000ef0:	dc450513          	addi	a0,a0,-572 # 80002cb0 <dy.0+0xf0>
    80000ef4:	04113423          	sd	ra,72(sp)
    80000ef8:	04813023          	sd	s0,64(sp)
    80000efc:	02913c23          	sd	s1,56(sp)
    80000f00:	03213823          	sd	s2,48(sp)
    80000f04:	03313423          	sd	s3,40(sp)
    80000f08:	03413023          	sd	s4,32(sp)
    80000f0c:	01513c23          	sd	s5,24(sp)
    80000f10:	3c9000ef          	jal	ra,80001ad8 <printf>
    80000f14:	00810593          	addi	a1,sp,8
    80000f18:	00100513          	li	a0,1
    80000f1c:	1f4000ef          	jal	ra,80001110 <ioe_read>
    80000f20:	00814783          	lbu	a5,8(sp)
    80000f24:	0009d997          	auipc	s3,0x9d
    80000f28:	ab998993          	addi	s3,s3,-1351 # 8009d9dd <has_uart>
    80000f2c:	00810593          	addi	a1,sp,8
    80000f30:	00700513          	li	a0,7
    80000f34:	00f98023          	sb	a5,0(s3)
    80000f38:	1d8000ef          	jal	ra,80001110 <ioe_read>
    80000f3c:	00814783          	lbu	a5,8(sp)
    80000f40:	0009da97          	auipc	s5,0x9d
    80000f44:	a9ca8a93          	addi	s5,s5,-1380 # 8009d9dc <has_kbd>
    80000f48:	00002497          	auipc	s1,0x2
    80000f4c:	07848493          	addi	s1,s1,120 # 80002fc0 <names>
    80000f50:	00fa8023          	sb	a5,0(s5)
    80000f54:	00002917          	auipc	s2,0x2
    80000f58:	d4c90913          	addi	s2,s2,-692 # 80002ca0 <dy.0+0xe0>
    80000f5c:	00002a17          	auipc	s4,0x2
    80000f60:	d4ca0a13          	addi	s4,s4,-692 # 80002ca8 <dy.0+0xe8>
    80000f64:	00002417          	auipc	s0,0x2
    80000f68:	d9440413          	addi	s0,s0,-620 # 80002cf8 <dy.0+0x138>
    80000f6c:	0009c703          	lbu	a4,0(s3)
    80000f70:	02070663          	beqz	a4,80000f9c <keyboard_test+0xb4>
    80000f74:	00002417          	auipc	s0,0x2
    80000f78:	d6c40413          	addi	s0,s0,-660 # 80002ce0 <dy.0+0x120>
    80000f7c:	00810593          	addi	a1,sp,8
    80000f80:	00300513          	li	a0,3
    80000f84:	18c000ef          	jal	ra,80001110 <ioe_read>
    80000f88:	00814603          	lbu	a2,8(sp)
    80000f8c:	00040513          	mv	a0,s0
    80000f90:	00060593          	mv	a1,a2
    80000f94:	345000ef          	jal	ra,80001ad8 <printf>
    80000f98:	fe5ff06f          	j	80000f7c <keyboard_test+0x94>
    80000f9c:	00079e63          	bnez	a5,80000fb8 <keyboard_test+0xd0>
    80000fa0:	0000006f          	j	80000fa0 <keyboard_test+0xb8>
    80000fa4:	0007b583          	ld	a1,0(a5) # 80000 <_entry_offset+0x80000>
    80000fa8:	00090693          	mv	a3,s2
    80000fac:	00071463          	bnez	a4,80000fb4 <keyboard_test+0xcc>
    80000fb0:	000a0693          	mv	a3,s4
    80000fb4:	325000ef          	jal	ra,80001ad8 <printf>
    80000fb8:	00800513          	li	a0,8
    80000fbc:	00810593          	addi	a1,sp,8
    80000fc0:	150000ef          	jal	ra,80001110 <ioe_read>
    80000fc4:	00c12603          	lw	a2,12(sp)
    80000fc8:	00814703          	lbu	a4,8(sp)
    80000fcc:	00040513          	mv	a0,s0
    80000fd0:	00361793          	slli	a5,a2,0x3
    80000fd4:	00f487b3          	add	a5,s1,a5
    80000fd8:	fc0616e3          	bnez	a2,80000fa4 <keyboard_test+0xbc>
    80000fdc:	000ac783          	lbu	a5,0(s5)
    80000fe0:	f8dff06f          	j	80000f6c <keyboard_test+0x84>

0000000080000fe4 <putch>:
    80000fe4:	00500793          	li	a5,5
    80000fe8:	01d79793          	slli	a5,a5,0x1d
    80000fec:	3ea78c23          	sb	a0,1016(a5)
    80000ff0:	00008067          	ret

0000000080000ff4 <halt>:
    80000ff4:	00050513          	mv	a0,a0
    80000ff8:	00100073          	ebreak
    80000ffc:	0000006f          	j	80000ffc <halt+0x8>

0000000080001000 <_trm_init>:
    80001000:	ff010113          	addi	sp,sp,-16
    80001004:	00002517          	auipc	a0,0x2
    80001008:	52c50513          	addi	a0,a0,1324 # 80003530 <mainargs>
    8000100c:	00113423          	sd	ra,8(sp)
    80001010:	800ff0ef          	jal	ra,80000010 <main>
    80001014:	00050513          	mv	a0,a0
    80001018:	00100073          	ebreak
    8000101c:	0000006f          	j	8000101c <_trm_init+0x1c>

0000000080001020 <__am_timer_config>:
    80001020:	00100793          	li	a5,1
    80001024:	00f50023          	sb	a5,0(a0)
    80001028:	00f500a3          	sb	a5,1(a0)
    8000102c:	00008067          	ret

0000000080001030 <__am_input_config>:
    80001030:	00100793          	li	a5,1
    80001034:	00f50023          	sb	a5,0(a0)
    80001038:	00008067          	ret

000000008000103c <__am_uart_config>:
    8000103c:	00050023          	sb	zero,0(a0)
    80001040:	00008067          	ret

0000000080001044 <__am_net_config>:
    80001044:	00050023          	sb	zero,0(a0)
    80001048:	00008067          	ret

000000008000104c <fail>:
    8000104c:	ff010113          	addi	sp,sp,-16
    80001050:	00813023          	sd	s0,0(sp)
    80001054:	00113423          	sd	ra,8(sp)
    80001058:	00002417          	auipc	s0,0x2
    8000105c:	20040413          	addi	s0,s0,512 # 80003258 <names+0x298>
    80001060:	04100513          	li	a0,65
    80001064:	00140413          	addi	s0,s0,1
    80001068:	f7dff0ef          	jal	ra,80000fe4 <putch>
    8000106c:	00044503          	lbu	a0,0(s0)
    80001070:	fe051ae3          	bnez	a0,80001064 <fail+0x18>
    80001074:	00002417          	auipc	s0,0x2
    80001078:	1f440413          	addi	s0,s0,500 # 80003268 <names+0x2a8>
    8000107c:	06100513          	li	a0,97
    80001080:	00140413          	addi	s0,s0,1
    80001084:	f61ff0ef          	jal	ra,80000fe4 <putch>
    80001088:	00044503          	lbu	a0,0(s0)
    8000108c:	fe051ae3          	bnez	a0,80001080 <fail+0x34>
    80001090:	00002417          	auipc	s0,0x2
    80001094:	1f840413          	addi	s0,s0,504 # 80003288 <names+0x2c8>
    80001098:	02000513          	li	a0,32
    8000109c:	00140413          	addi	s0,s0,1
    800010a0:	f45ff0ef          	jal	ra,80000fe4 <putch>
    800010a4:	00044503          	lbu	a0,0(s0)
    800010a8:	fe051ae3          	bnez	a0,8000109c <fail+0x50>
    800010ac:	00100513          	li	a0,1
    800010b0:	f45ff0ef          	jal	ra,80000ff4 <halt>

00000000800010b4 <ioe_init>:
    800010b4:	ff010113          	addi	sp,sp,-16
    800010b8:	00113423          	sd	ra,8(sp)
    800010bc:	00010797          	auipc	a5,0x10
    800010c0:	2b478793          	addi	a5,a5,692 # 80011370 <lut>
    800010c4:	00010697          	auipc	a3,0x10
    800010c8:	6ac68693          	addi	a3,a3,1708 # 80011770 <fb>
    800010cc:	00000617          	auipc	a2,0x0
    800010d0:	f8060613          	addi	a2,a2,-128 # 8000104c <fail>
    800010d4:	00c0006f          	j	800010e0 <ioe_init+0x2c>
    800010d8:	00878793          	addi	a5,a5,8
    800010dc:	00d78c63          	beq	a5,a3,800010f4 <ioe_init+0x40>
    800010e0:	0007b703          	ld	a4,0(a5)
    800010e4:	fe071ae3          	bnez	a4,800010d8 <ioe_init+0x24>
    800010e8:	00c7b023          	sd	a2,0(a5)
    800010ec:	00878793          	addi	a5,a5,8
    800010f0:	fed798e3          	bne	a5,a3,800010e0 <ioe_init+0x2c>
    800010f4:	100000ef          	jal	ra,800011f4 <__am_gpu_init>
    800010f8:	050000ef          	jal	ra,80001148 <__am_timer_init>
    800010fc:	2d8000ef          	jal	ra,800013d4 <__am_audio_init>
    80001100:	00813083          	ld	ra,8(sp)
    80001104:	00100513          	li	a0,1
    80001108:	01010113          	addi	sp,sp,16
    8000110c:	00008067          	ret

0000000080001110 <ioe_read>:
    80001110:	00351513          	slli	a0,a0,0x3
    80001114:	00010797          	auipc	a5,0x10
    80001118:	25c78793          	addi	a5,a5,604 # 80011370 <lut>
    8000111c:	00a787b3          	add	a5,a5,a0
    80001120:	0007b783          	ld	a5,0(a5)
    80001124:	00058513          	mv	a0,a1
    80001128:	00078067          	jr	a5

000000008000112c <ioe_write>:
    8000112c:	00351513          	slli	a0,a0,0x3
    80001130:	00010797          	auipc	a5,0x10
    80001134:	24078793          	addi	a5,a5,576 # 80011370 <lut>
    80001138:	00a787b3          	add	a5,a5,a0
    8000113c:	0007b783          	ld	a5,0(a5)
    80001140:	00058513          	mv	a0,a1
    80001144:	00078067          	jr	a5

0000000080001148 <__am_timer_init>:
    80001148:	00500713          	li	a4,5
    8000114c:	01d71713          	slli	a4,a4,0x1d
    80001150:	04c72783          	lw	a5,76(a4)
    80001154:	04872703          	lw	a4,72(a4)
    80001158:	02079793          	slli	a5,a5,0x20
    8000115c:	02071713          	slli	a4,a4,0x20
    80001160:	02075713          	srli	a4,a4,0x20
    80001164:	00e7e7b3          	or	a5,a5,a4
    80001168:	0009d717          	auipc	a4,0x9d
    8000116c:	86f73c23          	sd	a5,-1928(a4) # 8009d9e0 <boot_time>
    80001170:	00008067          	ret

0000000080001174 <__am_timer_uptime>:
    80001174:	00500713          	li	a4,5
    80001178:	01d71713          	slli	a4,a4,0x1d
    8000117c:	04c72783          	lw	a5,76(a4)
    80001180:	04872703          	lw	a4,72(a4)
    80001184:	02079793          	slli	a5,a5,0x20
    80001188:	02071713          	slli	a4,a4,0x20
    8000118c:	02075713          	srli	a4,a4,0x20
    80001190:	00e7e7b3          	or	a5,a5,a4
    80001194:	0009d717          	auipc	a4,0x9d
    80001198:	84c73703          	ld	a4,-1972(a4) # 8009d9e0 <boot_time>
    8000119c:	40e787b3          	sub	a5,a5,a4
    800011a0:	00f53023          	sd	a5,0(a0)
    800011a4:	00008067          	ret

00000000800011a8 <__am_timer_rtc>:
    800011a8:	76c00793          	li	a5,1900
    800011ac:	00052a23          	sw	zero,20(a0)
    800011b0:	00052823          	sw	zero,16(a0)
    800011b4:	00052623          	sw	zero,12(a0)
    800011b8:	00052423          	sw	zero,8(a0)
    800011bc:	00052223          	sw	zero,4(a0)
    800011c0:	00f52023          	sw	a5,0(a0)
    800011c4:	00008067          	ret

00000000800011c8 <__am_input_keybrd>:
    800011c8:	00500793          	li	a5,5
    800011cc:	01d79793          	slli	a5,a5,0x1d
    800011d0:	0607a783          	lw	a5,96(a5)
    800011d4:	ffff86b7          	lui	a3,0xffff8
    800011d8:	fff68693          	addi	a3,a3,-1 # ffffffffffff7fff <_end+0xffffffff7ff51fff>
    800011dc:	00f7d71b          	srliw	a4,a5,0xf
    800011e0:	00177713          	andi	a4,a4,1
    800011e4:	00d7f7b3          	and	a5,a5,a3
    800011e8:	00e50023          	sb	a4,0(a0)
    800011ec:	00f52223          	sw	a5,4(a0)
    800011f0:	00008067          	ret

00000000800011f4 <__am_gpu_init>:
    800011f4:	00008067          	ret

00000000800011f8 <__am_gpu_config>:
    800011f8:	00002797          	auipc	a5,0x2
    800011fc:	0e878793          	addi	a5,a5,232 # 800032e0 <names+0x320>
    80001200:	0007a603          	lw	a2,0(a5)
    80001204:	0047a683          	lw	a3,4(a5)
    80001208:	0087a703          	lw	a4,8(a5)
    8000120c:	00c7a783          	lw	a5,12(a5)
    80001210:	00c52023          	sw	a2,0(a0)
    80001214:	00d52223          	sw	a3,4(a0)
    80001218:	00e52423          	sw	a4,8(a0)
    8000121c:	00f52623          	sw	a5,12(a0)
    80001220:	00008067          	ret

0000000080001224 <__am_gpu_fbdraw>:
    80001224:	00452e03          	lw	t3,4(a0)
    80001228:	01452603          	lw	a2,20(a0)
    8000122c:	19000793          	li	a5,400
    80001230:	03c7873b          	mulw	a4,a5,t3
    80001234:	00052683          	lw	a3,0(a0)
    80001238:	01052803          	lw	a6,16(a0)
    8000123c:	16c05663          	blez	a2,800013a8 <__am_gpu_fbdraw+0x184>
    80001240:	00010317          	auipc	t1,0x10
    80001244:	53033303          	ld	t1,1328(t1) # 80011770 <fb>
    80001248:	17005063          	blez	a6,800013a8 <__am_gpu_fbdraw+0x184>
    8000124c:	0018529b          	srliw	t0,a6,0x1
    80001250:	fd010113          	addi	sp,sp,-48
    80001254:	fff2829b          	addiw	t0,t0,-1
    80001258:	00853583          	ld	a1,8(a0)
    8000125c:	02c78fbb          	mulw	t6,a5,a2
    80001260:	02913023          	sd	s1,32(sp)
    80001264:	02029793          	slli	a5,t0,0x20
    80001268:	fff8049b          	addiw	s1,a6,-1
    8000126c:	00d708b3          	add	a7,a4,a3
    80001270:	0004839b          	sext.w	t2,s1
    80001274:	01d7d293          	srli	t0,a5,0x1d
    80001278:	02813423          	sd	s0,40(sp)
    8000127c:	00289893          	slli	a7,a7,0x2
    80001280:	ffe87413          	andi	s0,a6,-2
    80001284:	00ef8fbb          	addw	t6,t6,a4
    80001288:	00800793          	li	a5,8
    8000128c:	02049493          	slli	s1,s1,0x20
    80001290:	01213c23          	sd	s2,24(sp)
    80001294:	00080f1b          	sext.w	t5,a6
    80001298:	01313823          	sd	s3,16(sp)
    8000129c:	01413423          	sd	s4,8(sp)
    800012a0:	011308b3          	add	a7,t1,a7
    800012a4:	00d70e3b          	addw	t3,a4,a3
    800012a8:	00df8fbb          	addw	t6,t6,a3
    800012ac:	00040813          	mv	a6,s0
    800012b0:	00000e93          	li	t4,0
    800012b4:	0077b3b3          	sltu	t2,a5,t2
    800012b8:	00828293          	addi	t0,t0,8
    800012bc:	0204d493          	srli	s1,s1,0x20
    800012c0:	00458913          	addi	s2,a1,4
    800012c4:	002e9613          	slli	a2,t4,0x2
    800012c8:	00460713          	addi	a4,a2,4
    800012cc:	00e58733          	add	a4,a1,a4
    800012d0:	41170733          	sub	a4,a4,a7
    800012d4:	00e03733          	snez	a4,a4
    800012d8:	00777733          	and	a4,a4,t2
    800012dc:	000e079b          	sext.w	a5,t3
    800012e0:	00c58633          	add	a2,a1,a2
    800012e4:	08070c63          	beqz	a4,8000137c <__am_gpu_fbdraw+0x158>
    800012e8:	01166a33          	or	s4,a2,a7
    800012ec:	007a7a13          	andi	s4,s4,7
    800012f0:	00060713          	mv	a4,a2
    800012f4:	005609b3          	add	s3,a2,t0
    800012f8:	00088693          	mv	a3,a7
    800012fc:	080a1063          	bnez	s4,8000137c <__am_gpu_fbdraw+0x158>
    80001300:	00073603          	ld	a2,0(a4)
    80001304:	00870713          	addi	a4,a4,8
    80001308:	00868693          	addi	a3,a3,8
    8000130c:	fec6bc23          	sd	a2,-8(a3)
    80001310:	ff3718e3          	bne	a4,s3,80001300 <__am_gpu_fbdraw+0xdc>
    80001314:	010e873b          	addw	a4,t4,a6
    80001318:	028f0063          	beq	t5,s0,80001338 <__am_gpu_fbdraw+0x114>
    8000131c:	00271713          	slli	a4,a4,0x2
    80001320:	00e58733          	add	a4,a1,a4
    80001324:	00072703          	lw	a4,0(a4)
    80001328:	010787bb          	addw	a5,a5,a6
    8000132c:	00279793          	slli	a5,a5,0x2
    80001330:	00f307b3          	add	a5,t1,a5
    80001334:	00e7a023          	sw	a4,0(a5)
    80001338:	190e0e1b          	addiw	t3,t3,400
    8000133c:	01ee8ebb          	addw	t4,t4,t5
    80001340:	64088893          	addi	a7,a7,1600
    80001344:	f9fe10e3          	bne	t3,t6,800012c4 <__am_gpu_fbdraw+0xa0>
    80001348:	01854783          	lbu	a5,24(a0)
    8000134c:	00078a63          	beqz	a5,80001360 <__am_gpu_fbdraw+0x13c>
    80001350:	00500793          	li	a5,5
    80001354:	01d79793          	slli	a5,a5,0x1d
    80001358:	00100713          	li	a4,1
    8000135c:	10e7a223          	sw	a4,260(a5)
    80001360:	02813403          	ld	s0,40(sp)
    80001364:	02013483          	ld	s1,32(sp)
    80001368:	01813903          	ld	s2,24(sp)
    8000136c:	01013983          	ld	s3,16(sp)
    80001370:	00813a03          	ld	s4,8(sp)
    80001374:	03010113          	addi	sp,sp,48
    80001378:	00008067          	ret
    8000137c:	01d48733          	add	a4,s1,t4
    80001380:	00271713          	slli	a4,a4,0x2
    80001384:	00060793          	mv	a5,a2
    80001388:	01270633          	add	a2,a4,s2
    8000138c:	00088713          	mv	a4,a7
    80001390:	0007a683          	lw	a3,0(a5)
    80001394:	00478793          	addi	a5,a5,4
    80001398:	00470713          	addi	a4,a4,4
    8000139c:	fed72e23          	sw	a3,-4(a4)
    800013a0:	fef618e3          	bne	a2,a5,80001390 <__am_gpu_fbdraw+0x16c>
    800013a4:	f95ff06f          	j	80001338 <__am_gpu_fbdraw+0x114>
    800013a8:	01854783          	lbu	a5,24(a0)
    800013ac:	00078c63          	beqz	a5,800013c4 <__am_gpu_fbdraw+0x1a0>
    800013b0:	00500793          	li	a5,5
    800013b4:	01d79793          	slli	a5,a5,0x1d
    800013b8:	00100713          	li	a4,1
    800013bc:	10e7a223          	sw	a4,260(a5)
    800013c0:	00008067          	ret
    800013c4:	00008067          	ret

00000000800013c8 <__am_gpu_status>:
    800013c8:	00100793          	li	a5,1
    800013cc:	00f50023          	sb	a5,0(a0)
    800013d0:	00008067          	ret

00000000800013d4 <__am_audio_init>:
    800013d4:	00008067          	ret

00000000800013d8 <__am_audio_config>:
    800013d8:	00050023          	sb	zero,0(a0)
    800013dc:	00008067          	ret

00000000800013e0 <__am_audio_ctrl>:
    800013e0:	00008067          	ret

00000000800013e4 <__am_audio_status>:
    800013e4:	00052023          	sw	zero,0(a0)
    800013e8:	00008067          	ret

00000000800013ec <__am_audio_play>:
    800013ec:	00008067          	ret

00000000800013f0 <__am_disk_config>:
    800013f0:	00050023          	sb	zero,0(a0)
    800013f4:	00008067          	ret

00000000800013f8 <__am_disk_status>:
    800013f8:	00008067          	ret

00000000800013fc <__am_disk_blkio>:
    800013fc:	00008067          	ret

0000000080001400 <mpe_init>:
    80001400:	ff010113          	addi	sp,sp,-16
    80001404:	00813023          	sd	s0,0(sp)
    80001408:	00113423          	sd	ra,8(sp)
    8000140c:	000500e7          	jalr	a0
    80001410:	00002417          	auipc	s0,0x2
    80001414:	e4840413          	addi	s0,s0,-440 # 80003258 <names+0x298>
    80001418:	04100513          	li	a0,65
    8000141c:	00140413          	addi	s0,s0,1
    80001420:	bc5ff0ef          	jal	ra,80000fe4 <putch>
    80001424:	00044503          	lbu	a0,0(s0)
    80001428:	fe051ae3          	bnez	a0,8000141c <mpe_init+0x1c>
    8000142c:	00002417          	auipc	s0,0x2
    80001430:	ec440413          	addi	s0,s0,-316 # 800032f0 <names+0x330>
    80001434:	04d00513          	li	a0,77
    80001438:	00140413          	addi	s0,s0,1
    8000143c:	ba9ff0ef          	jal	ra,80000fe4 <putch>
    80001440:	00044503          	lbu	a0,0(s0)
    80001444:	fe051ae3          	bnez	a0,80001438 <mpe_init+0x38>
    80001448:	00002417          	auipc	s0,0x2
    8000144c:	ec040413          	addi	s0,s0,-320 # 80003308 <names+0x348>
    80001450:	02000513          	li	a0,32
    80001454:	00140413          	addi	s0,s0,1
    80001458:	b8dff0ef          	jal	ra,80000fe4 <putch>
    8000145c:	00044503          	lbu	a0,0(s0)
    80001460:	fe051ae3          	bnez	a0,80001454 <mpe_init+0x54>
    80001464:	00100513          	li	a0,1
    80001468:	b8dff0ef          	jal	ra,80000ff4 <halt>

000000008000146c <cpu_current>:
    8000146c:	00000513          	li	a0,0
    80001470:	00008067          	ret

0000000080001474 <__am_irq_handle>:
    80001474:	0009c717          	auipc	a4,0x9c
    80001478:	57473703          	ld	a4,1396(a4) # 8009d9e8 <user_handler>
    8000147c:	00050593          	mv	a1,a0
    80001480:	0a070663          	beqz	a4,8000152c <__am_irq_handle+0xb8>
    80001484:	10053683          	ld	a3,256(a0)
    80001488:	fb010113          	addi	sp,sp,-80
    8000148c:	04113423          	sd	ra,72(sp)
    80001490:	02013023          	sd	zero,32(sp)
    80001494:	02013423          	sd	zero,40(sp)
    80001498:	02013823          	sd	zero,48(sp)
    8000149c:	02013c23          	sd	zero,56(sp)
    800014a0:	00b00793          	li	a5,11
    800014a4:	06f68063          	beq	a3,a5,80001504 <__am_irq_handle+0x90>
    800014a8:	fff00793          	li	a5,-1
    800014ac:	03f79793          	slli	a5,a5,0x3f
    800014b0:	00778793          	addi	a5,a5,7
    800014b4:	04f69263          	bne	a3,a5,800014f8 <__am_irq_handle+0x84>
    800014b8:	00500793          	li	a5,5
    800014bc:	02f12023          	sw	a5,32(sp)
    800014c0:	02013783          	ld	a5,32(sp)
    800014c4:	00010513          	mv	a0,sp
    800014c8:	00f13023          	sd	a5,0(sp)
    800014cc:	02813783          	ld	a5,40(sp)
    800014d0:	00f13423          	sd	a5,8(sp)
    800014d4:	03013783          	ld	a5,48(sp)
    800014d8:	00f13823          	sd	a5,16(sp)
    800014dc:	03813783          	ld	a5,56(sp)
    800014e0:	00f13c23          	sd	a5,24(sp)
    800014e4:	000700e7          	jalr	a4
    800014e8:	04050463          	beqz	a0,80001530 <__am_irq_handle+0xbc>
    800014ec:	04813083          	ld	ra,72(sp)
    800014f0:	05010113          	addi	sp,sp,80
    800014f4:	00008067          	ret
    800014f8:	00400793          	li	a5,4
    800014fc:	02f12023          	sw	a5,32(sp)
    80001500:	fc1ff06f          	j	800014c0 <__am_irq_handle+0x4c>
    80001504:	08853783          	ld	a5,136(a0)
    80001508:	11053683          	ld	a3,272(a0)
    8000150c:	10053023          	sd	zero,256(a0)
    80001510:	00178793          	addi	a5,a5,1
    80001514:	00f037b3          	snez	a5,a5
    80001518:	00178793          	addi	a5,a5,1
    8000151c:	00468693          	addi	a3,a3,4
    80001520:	02f12023          	sw	a5,32(sp)
    80001524:	10d53823          	sd	a3,272(a0)
    80001528:	f99ff06f          	j	800014c0 <__am_irq_handle+0x4c>
    8000152c:	00008067          	ret
    80001530:	01e00613          	li	a2,30
    80001534:	00002597          	auipc	a1,0x2
    80001538:	e2458593          	addi	a1,a1,-476 # 80003358 <names+0x398>
    8000153c:	00001517          	auipc	a0,0x1
    80001540:	4c450513          	addi	a0,a0,1220 # 80002a00 <tests+0x8e0>
    80001544:	594000ef          	jal	ra,80001ad8 <printf>
    80001548:	00100513          	li	a0,1
    8000154c:	aa9ff0ef          	jal	ra,80000ff4 <halt>

0000000080001550 <cte_init>:
    80001550:	00050793          	mv	a5,a0
    80001554:	00000717          	auipc	a4,0x0
    80001558:	07470713          	addi	a4,a4,116 # 800015c8 <__am_asm_trap>
    8000155c:	30571073          	csrw	mtvec,a4
    80001560:	00100513          	li	a0,1
    80001564:	0009c717          	auipc	a4,0x9c
    80001568:	48f73223          	sd	a5,1156(a4) # 8009d9e8 <user_handler>
    8000156c:	00008067          	ret

0000000080001570 <yield>:
    80001570:	fff00893          	li	a7,-1
    80001574:	00000073          	ecall
    80001578:	00008067          	ret

000000008000157c <iset>:
    8000157c:	02050063          	beqz	a0,8000159c <iset+0x20>
    80001580:	30002373          	csrr	t1,mstatus
    80001584:	00836313          	ori	t1,t1,8
    80001588:	30031073          	csrw	mstatus,t1
    8000158c:	30402373          	csrr	t1,mie
    80001590:	08036313          	ori	t1,t1,128
    80001594:	30431073          	csrw	mie,t1
    80001598:	00008067          	ret
    8000159c:	30002373          	csrr	t1,mstatus
    800015a0:	00800293          	li	t0,8
    800015a4:	faf2c293          	xori	t0,t0,-81
    800015a8:	00537333          	and	t1,t1,t0
    800015ac:	30031073          	csrw	mstatus,t1
    800015b0:	30402373          	csrr	t1,mie
    800015b4:	08000293          	li	t0,128
    800015b8:	faf2c293          	xori	t0,t0,-81
    800015bc:	00537333          	and	t1,t1,t0
    800015c0:	30431073          	csrw	mie,t1
    800015c4:	00008067          	ret

00000000800015c8 <__am_asm_trap>:
    800015c8:	ee010113          	addi	sp,sp,-288
    800015cc:	00113423          	sd	ra,8(sp)
    800015d0:	00313c23          	sd	gp,24(sp)
    800015d4:	02413023          	sd	tp,32(sp)
    800015d8:	02513423          	sd	t0,40(sp)
    800015dc:	02613823          	sd	t1,48(sp)
    800015e0:	02713c23          	sd	t2,56(sp)
    800015e4:	04813023          	sd	s0,64(sp)
    800015e8:	04913423          	sd	s1,72(sp)
    800015ec:	04a13823          	sd	a0,80(sp)
    800015f0:	04b13c23          	sd	a1,88(sp)
    800015f4:	06c13023          	sd	a2,96(sp)
    800015f8:	06d13423          	sd	a3,104(sp)
    800015fc:	06e13823          	sd	a4,112(sp)
    80001600:	06f13c23          	sd	a5,120(sp)
    80001604:	09013023          	sd	a6,128(sp)
    80001608:	09113423          	sd	a7,136(sp)
    8000160c:	09213823          	sd	s2,144(sp)
    80001610:	09313c23          	sd	s3,152(sp)
    80001614:	0b413023          	sd	s4,160(sp)
    80001618:	0b513423          	sd	s5,168(sp)
    8000161c:	0b613823          	sd	s6,176(sp)
    80001620:	0b713c23          	sd	s7,184(sp)
    80001624:	0d813023          	sd	s8,192(sp)
    80001628:	0d913423          	sd	s9,200(sp)
    8000162c:	0da13823          	sd	s10,208(sp)
    80001630:	0db13c23          	sd	s11,216(sp)
    80001634:	0fc13023          	sd	t3,224(sp)
    80001638:	0fd13423          	sd	t4,232(sp)
    8000163c:	0fe13823          	sd	t5,240(sp)
    80001640:	0ff13c23          	sd	t6,248(sp)
    80001644:	342022f3          	csrr	t0,mcause
    80001648:	30002373          	csrr	t1,mstatus
    8000164c:	341023f3          	csrr	t2,mepc
    80001650:	10513023          	sd	t0,256(sp)
    80001654:	10613423          	sd	t1,264(sp)
    80001658:	10713823          	sd	t2,272(sp)
    8000165c:	00020537          	lui	a0,0x20
    80001660:	00a36333          	or	t1,t1,a0
    80001664:	30031073          	csrw	mstatus,t1
    80001668:	00010513          	mv	a0,sp
    8000166c:	e09ff0ef          	jal	ra,80001474 <__am_irq_handle>
    80001670:	10813303          	ld	t1,264(sp)
    80001674:	11013383          	ld	t2,272(sp)
    80001678:	30031073          	csrw	mstatus,t1
    8000167c:	34139073          	csrw	mepc,t2
    80001680:	00813083          	ld	ra,8(sp)
    80001684:	01813183          	ld	gp,24(sp)
    80001688:	02013203          	ld	tp,32(sp)
    8000168c:	02813283          	ld	t0,40(sp)
    80001690:	03013303          	ld	t1,48(sp)
    80001694:	03813383          	ld	t2,56(sp)
    80001698:	04013403          	ld	s0,64(sp)
    8000169c:	04813483          	ld	s1,72(sp)
    800016a0:	05013503          	ld	a0,80(sp)
    800016a4:	05813583          	ld	a1,88(sp)
    800016a8:	06013603          	ld	a2,96(sp)
    800016ac:	06813683          	ld	a3,104(sp)
    800016b0:	07013703          	ld	a4,112(sp)
    800016b4:	07813783          	ld	a5,120(sp)
    800016b8:	08013803          	ld	a6,128(sp)
    800016bc:	08813883          	ld	a7,136(sp)
    800016c0:	09013903          	ld	s2,144(sp)
    800016c4:	09813983          	ld	s3,152(sp)
    800016c8:	0a013a03          	ld	s4,160(sp)
    800016cc:	0a813a83          	ld	s5,168(sp)
    800016d0:	0b013b03          	ld	s6,176(sp)
    800016d4:	0b813b83          	ld	s7,184(sp)
    800016d8:	0c013c03          	ld	s8,192(sp)
    800016dc:	0c813c83          	ld	s9,200(sp)
    800016e0:	0d013d03          	ld	s10,208(sp)
    800016e4:	0d813d83          	ld	s11,216(sp)
    800016e8:	0e013e03          	ld	t3,224(sp)
    800016ec:	0e813e83          	ld	t4,232(sp)
    800016f0:	0f013f03          	ld	t5,240(sp)
    800016f4:	0f813f83          	ld	t6,248(sp)
    800016f8:	12010113          	addi	sp,sp,288
    800016fc:	30200073          	mret
    80001700:	0000                	.2byte	0x0
	...

0000000080001704 <vme_init>:
    80001704:	ff010113          	addi	sp,sp,-16
    80001708:	00113423          	sd	ra,8(sp)
    8000170c:	00050793          	mv	a5,a0
    80001710:	00001537          	lui	a0,0x1
    80001714:	0009c717          	auipc	a4,0x9c
    80001718:	2cf73e23          	sd	a5,732(a4) # 8009d9f0 <pgalloc_usr>
    8000171c:	000780e7          	jalr	a5
    80001720:	00094717          	auipc	a4,0x94
    80001724:	28a73c23          	sd	a0,664(a4) # 800959b8 <kas+0x18>
    80001728:	fff00713          	li	a4,-1
    8000172c:	00c55793          	srli	a5,a0,0xc
    80001730:	03f71713          	slli	a4,a4,0x3f
    80001734:	00e7e7b3          	or	a5,a5,a4
    80001738:	18079073          	csrw	satp,a5
    8000173c:	00813083          	ld	ra,8(sp)
    80001740:	00100793          	li	a5,1
    80001744:	0009c717          	auipc	a4,0x9c
    80001748:	2af72a23          	sw	a5,692(a4) # 8009d9f8 <vme_enable>
    8000174c:	00100513          	li	a0,1
    80001750:	01010113          	addi	sp,sp,16
    80001754:	00008067          	ret

0000000080001758 <protect>:
    80001758:	ff010113          	addi	sp,sp,-16
    8000175c:	00813023          	sd	s0,0(sp)
    80001760:	00113423          	sd	ra,8(sp)
    80001764:	00050413          	mv	s0,a0
    80001768:	0009c797          	auipc	a5,0x9c
    8000176c:	2887b783          	ld	a5,648(a5) # 8009d9f0 <pgalloc_usr>
    80001770:	00001537          	lui	a0,0x1
    80001774:	000780e7          	jalr	a5
    80001778:	400007b7          	lui	a5,0x40000
    8000177c:	00f43423          	sd	a5,8(s0)
    80001780:	00100793          	li	a5,1
    80001784:	01f79793          	slli	a5,a5,0x1f
    80001788:	00f43823          	sd	a5,16(s0)
    8000178c:	000017b7          	lui	a5,0x1
    80001790:	00a43c23          	sd	a0,24(s0)
    80001794:	00f42023          	sw	a5,0(s0)
    80001798:	00013403          	ld	s0,0(sp)
    8000179c:	00813083          	ld	ra,8(sp)
    800017a0:	00094597          	auipc	a1,0x94
    800017a4:	2185b583          	ld	a1,536(a1) # 800959b8 <kas+0x18>
    800017a8:	00001637          	lui	a2,0x1
    800017ac:	01010113          	addi	sp,sp,16
    800017b0:	08c0006f          	j	8000183c <memcpy>

00000000800017b4 <map>:
    800017b4:	00008067          	ret

00000000800017b8 <ucontext>:
    800017b8:	ff010113          	addi	sp,sp,-16
    800017bc:	00000513          	li	a0,0
    800017c0:	01010113          	addi	sp,sp,16
    800017c4:	00008067          	ret

00000000800017c8 <strcmp>:
    800017c8:	00054783          	lbu	a5,0(a0) # 1000 <_entry_offset+0x1000>
    800017cc:	00158593          	addi	a1,a1,1
    800017d0:	00150513          	addi	a0,a0,1
    800017d4:	fff5c703          	lbu	a4,-1(a1)
    800017d8:	00078863          	beqz	a5,800017e8 <strcmp+0x20>
    800017dc:	fee786e3          	beq	a5,a4,800017c8 <strcmp>
    800017e0:	40e7853b          	subw	a0,a5,a4
    800017e4:	00008067          	ret
    800017e8:	40e0053b          	negw	a0,a4
    800017ec:	00008067          	ret

00000000800017f0 <strncmp>:
    800017f0:	00c58633          	add	a2,a1,a2
    800017f4:	00000713          	li	a4,0
    800017f8:	00000793          	li	a5,0
    800017fc:	0180006f          	j	80001814 <strncmp+0x24>
    80001800:	fff54783          	lbu	a5,-1(a0)
    80001804:	00158593          	addi	a1,a1,1
    80001808:	fff5c703          	lbu	a4,-1(a1)
    8000180c:	00078c63          	beqz	a5,80001824 <strncmp+0x34>
    80001810:	02e79063          	bne	a5,a4,80001830 <strncmp+0x40>
    80001814:	00150513          	addi	a0,a0,1
    80001818:	feb614e3          	bne	a2,a1,80001800 <strncmp+0x10>
    8000181c:	40e7853b          	subw	a0,a5,a4
    80001820:	00008067          	ret
    80001824:	00000793          	li	a5,0
    80001828:	40e7853b          	subw	a0,a5,a4
    8000182c:	00008067          	ret
    80001830:	0007879b          	sext.w	a5,a5
    80001834:	40e7853b          	subw	a0,a5,a4
    80001838:	00008067          	ret

000000008000183c <memcpy>:
    8000183c:	10050263          	beqz	a0,80001940 <memcpy+0x104>
    80001840:	10058263          	beqz	a1,80001944 <memcpy+0x108>
    80001844:	fff60893          	addi	a7,a2,-1 # fff <_entry_offset+0xfff>
    80001848:	0e060c63          	beqz	a2,80001940 <memcpy+0x104>
    8000184c:	00158713          	addi	a4,a1,1
    80001850:	40e507b3          	sub	a5,a0,a4
    80001854:	0077b793          	sltiu	a5,a5,7
    80001858:	0088b693          	sltiu	a3,a7,8
    8000185c:	0017c793          	xori	a5,a5,1
    80001860:	0016c693          	xori	a3,a3,1
    80001864:	00d7f7b3          	and	a5,a5,a3
    80001868:	0ff7f793          	zext.b	a5,a5
    8000186c:	0a078863          	beqz	a5,8000191c <memcpy+0xe0>
    80001870:	00b567b3          	or	a5,a0,a1
    80001874:	0077f793          	andi	a5,a5,7
    80001878:	0a079263          	bnez	a5,8000191c <memcpy+0xe0>
    8000187c:	ff867813          	andi	a6,a2,-8
    80001880:	00058793          	mv	a5,a1
    80001884:	00050713          	mv	a4,a0
    80001888:	00b80833          	add	a6,a6,a1
    8000188c:	0007b683          	ld	a3,0(a5) # 1000 <_entry_offset+0x1000>
    80001890:	00878793          	addi	a5,a5,8
    80001894:	00870713          	addi	a4,a4,8
    80001898:	fed73c23          	sd	a3,-8(a4)
    8000189c:	ff0798e3          	bne	a5,a6,8000188c <memcpy+0x50>
    800018a0:	ff867693          	andi	a3,a2,-8
    800018a4:	00d50733          	add	a4,a0,a3
    800018a8:	00d585b3          	add	a1,a1,a3
    800018ac:	40d887b3          	sub	a5,a7,a3
    800018b0:	08d60863          	beq	a2,a3,80001940 <memcpy+0x104>
    800018b4:	0005c683          	lbu	a3,0(a1)
    800018b8:	00d70023          	sb	a3,0(a4)
    800018bc:	08078263          	beqz	a5,80001940 <memcpy+0x104>
    800018c0:	0015c603          	lbu	a2,1(a1)
    800018c4:	00100693          	li	a3,1
    800018c8:	00c700a3          	sb	a2,1(a4)
    800018cc:	06d78a63          	beq	a5,a3,80001940 <memcpy+0x104>
    800018d0:	0025c603          	lbu	a2,2(a1)
    800018d4:	00200693          	li	a3,2
    800018d8:	00c70123          	sb	a2,2(a4)
    800018dc:	06d78263          	beq	a5,a3,80001940 <memcpy+0x104>
    800018e0:	0035c603          	lbu	a2,3(a1)
    800018e4:	00300693          	li	a3,3
    800018e8:	00c701a3          	sb	a2,3(a4)
    800018ec:	04d78a63          	beq	a5,a3,80001940 <memcpy+0x104>
    800018f0:	0045c603          	lbu	a2,4(a1)
    800018f4:	00400693          	li	a3,4
    800018f8:	00c70223          	sb	a2,4(a4)
    800018fc:	04d78263          	beq	a5,a3,80001940 <memcpy+0x104>
    80001900:	0055c603          	lbu	a2,5(a1)
    80001904:	00500693          	li	a3,5
    80001908:	00c702a3          	sb	a2,5(a4)
    8000190c:	02d78a63          	beq	a5,a3,80001940 <memcpy+0x104>
    80001910:	0065c783          	lbu	a5,6(a1)
    80001914:	00f70323          	sb	a5,6(a4)
    80001918:	00008067          	ret
    8000191c:	00c50633          	add	a2,a0,a2
    80001920:	00050793          	mv	a5,a0
    80001924:	0080006f          	j	8000192c <memcpy+0xf0>
    80001928:	00170713          	addi	a4,a4,1
    8000192c:	0005c683          	lbu	a3,0(a1)
    80001930:	00178793          	addi	a5,a5,1
    80001934:	00070593          	mv	a1,a4
    80001938:	fed78fa3          	sb	a3,-1(a5)
    8000193c:	fef616e3          	bne	a2,a5,80001928 <memcpy+0xec>
    80001940:	00008067          	ret
    80001944:	00000513          	li	a0,0
    80001948:	00008067          	ret

000000008000194c <number>:
    8000194c:	0207f793          	andi	a5,a5,32
    80001950:	fb010113          	addi	sp,sp,-80
    80001954:	00078e63          	beqz	a5,80001970 <number+0x24>
    80001958:	01000813          	li	a6,16
    8000195c:	13060263          	beq	a2,a6,80001a80 <number+0x134>
    80001960:	00800813          	li	a6,8
    80001964:	15060663          	beq	a2,a6,80001ab0 <number+0x164>
    80001968:	00200813          	li	a6,2
    8000196c:	11060a63          	beq	a2,a6,80001a80 <number+0x134>
    80001970:	0c059863          	bnez	a1,80001a40 <number+0xf4>
    80001974:	03000593          	li	a1,48
    80001978:	00b10423          	sb	a1,8(sp)
    8000197c:	03000293          	li	t0,48
    80001980:	00000813          	li	a6,0
    80001984:	00100893          	li	a7,1
    80001988:	00810f93          	addi	t6,sp,8
    8000198c:	0008859b          	sext.w	a1,a7
    80001990:	00e8d463          	bge	a7,a4,80001998 <number+0x4c>
    80001994:	0007059b          	sext.w	a1,a4
    80001998:	40b6873b          	subw	a4,a3,a1
    8000199c:	12e05a63          	blez	a4,80001ad0 <number+0x184>
    800019a0:	00e50733          	add	a4,a0,a4
    800019a4:	02000313          	li	t1,32
    800019a8:	00150513          	addi	a0,a0,1
    800019ac:	fe650fa3          	sb	t1,-1(a0)
    800019b0:	fee51ce3          	bne	a0,a4,800019a8 <number+0x5c>
    800019b4:	00078e63          	beqz	a5,800019d0 <number+0x84>
    800019b8:	00800793          	li	a5,8
    800019bc:	0cf60663          	beq	a2,a5,80001a88 <number+0x13c>
    800019c0:	01000793          	li	a5,16
    800019c4:	0ef60a63          	beq	a2,a5,80001ab8 <number+0x16c>
    800019c8:	00200793          	li	a5,2
    800019cc:	0cf60663          	beq	a2,a5,80001a98 <number+0x14c>
    800019d0:	00070513          	mv	a0,a4
    800019d4:	02b8d663          	bge	a7,a1,80001a00 <number+0xb4>
    800019d8:	4115853b          	subw	a0,a1,a7
    800019dc:	fff5051b          	addiw	a0,a0,-1
    800019e0:	02051513          	slli	a0,a0,0x20
    800019e4:	02055513          	srli	a0,a0,0x20
    800019e8:	00150513          	addi	a0,a0,1
    800019ec:	00a70533          	add	a0,a4,a0
    800019f0:	03000793          	li	a5,48
    800019f4:	00170713          	addi	a4,a4,1
    800019f8:	fef70fa3          	sb	a5,-1(a4)
    800019fc:	fea71ce3          	bne	a4,a0,800019f4 <number+0xa8>
    80001a00:	010f86b3          	add	a3,t6,a6
    80001a04:	00050713          	mv	a4,a0
    80001a08:	00100613          	li	a2,1
    80001a0c:	0080006f          	j	80001a14 <number+0xc8>
    80001a10:	0006c283          	lbu	t0,0(a3)
    80001a14:	00170713          	addi	a4,a4,1
    80001a18:	40e607bb          	subw	a5,a2,a4
    80001a1c:	010787bb          	addw	a5,a5,a6
    80001a20:	00a787bb          	addw	a5,a5,a0
    80001a24:	fe570fa3          	sb	t0,-1(a4)
    80001a28:	fff68693          	addi	a3,a3,-1
    80001a2c:	fef042e3          	bgtz	a5,80001a10 <number+0xc4>
    80001a30:	0018081b          	addiw	a6,a6,1
    80001a34:	01050533          	add	a0,a0,a6
    80001a38:	05010113          	addi	sp,sp,80
    80001a3c:	00008067          	ret
    80001a40:	00810f93          	addi	t6,sp,8
    80001a44:	000f8e13          	mv	t3,t6
    80001a48:	00000893          	li	a7,0
    80001a4c:	00002f17          	auipc	t5,0x2
    80001a50:	954f0f13          	addi	t5,t5,-1708 # 800033a0 <names+0x3e0>
    80001a54:	02c5f333          	remu	t1,a1,a2
    80001a58:	001e0e13          	addi	t3,t3,1
    80001a5c:	00058e93          	mv	t4,a1
    80001a60:	00088813          	mv	a6,a7
    80001a64:	0018889b          	addiw	a7,a7,1
    80001a68:	006f0333          	add	t1,t5,t1
    80001a6c:	00034283          	lbu	t0,0(t1)
    80001a70:	02c5d5b3          	divu	a1,a1,a2
    80001a74:	fe5e0fa3          	sb	t0,-1(t3)
    80001a78:	fccefee3          	bgeu	t4,a2,80001a54 <number+0x108>
    80001a7c:	f11ff06f          	j	8000198c <number+0x40>
    80001a80:	ffe6869b          	addiw	a3,a3,-2
    80001a84:	eedff06f          	j	80001970 <number+0x24>
    80001a88:	03000793          	li	a5,48
    80001a8c:	00f70023          	sb	a5,0(a4)
    80001a90:	00170713          	addi	a4,a4,1
    80001a94:	f3dff06f          	j	800019d0 <number+0x84>
    80001a98:	03000793          	li	a5,48
    80001a9c:	00f70023          	sb	a5,0(a4)
    80001aa0:	06200793          	li	a5,98
    80001aa4:	00f700a3          	sb	a5,1(a4)
    80001aa8:	00270713          	addi	a4,a4,2
    80001aac:	f25ff06f          	j	800019d0 <number+0x84>
    80001ab0:	fff6869b          	addiw	a3,a3,-1
    80001ab4:	ebdff06f          	j	80001970 <number+0x24>
    80001ab8:	03000793          	li	a5,48
    80001abc:	00f70023          	sb	a5,0(a4)
    80001ac0:	07800793          	li	a5,120
    80001ac4:	00f700a3          	sb	a5,1(a4)
    80001ac8:	00270713          	addi	a4,a4,2
    80001acc:	f05ff06f          	j	800019d0 <number+0x84>
    80001ad0:	00050713          	mv	a4,a0
    80001ad4:	ee1ff06f          	j	800019b4 <number+0x68>

0000000080001ad8 <printf>:
    80001ad8:	f9010113          	addi	sp,sp,-112
    80001adc:	03810313          	addi	t1,sp,56
    80001ae0:	02b13c23          	sd	a1,56(sp)
    80001ae4:	04c13023          	sd	a2,64(sp)
    80001ae8:	00050593          	mv	a1,a0
    80001aec:	00030613          	mv	a2,t1
    80001af0:	00094517          	auipc	a0,0x94
    80001af4:	ed050513          	addi	a0,a0,-304 # 800959c0 <sprint_buf>
    80001af8:	04f13c23          	sd	a5,88(sp)
    80001afc:	02113423          	sd	ra,40(sp)
    80001b00:	02813023          	sd	s0,32(sp)
    80001b04:	00913c23          	sd	s1,24(sp)
    80001b08:	01213823          	sd	s2,16(sp)
    80001b0c:	04d13423          	sd	a3,72(sp)
    80001b10:	04e13823          	sd	a4,80(sp)
    80001b14:	07013023          	sd	a6,96(sp)
    80001b18:	07113423          	sd	a7,104(sp)
    80001b1c:	00613423          	sd	t1,8(sp)
    80001b20:	08c000ef          	jal	ra,80001bac <vsprintf>
    80001b24:	000087b7          	lui	a5,0x8
    80001b28:	04a7cc63          	blt	a5,a0,80001b80 <printf+0xa8>
    80001b2c:	00050913          	mv	s2,a0
    80001b30:	02a05a63          	blez	a0,80001b64 <printf+0x8c>
    80001b34:	fff5049b          	addiw	s1,a0,-1
    80001b38:	02049493          	slli	s1,s1,0x20
    80001b3c:	0204d493          	srli	s1,s1,0x20
    80001b40:	00094797          	auipc	a5,0x94
    80001b44:	e8178793          	addi	a5,a5,-383 # 800959c1 <sprint_buf+0x1>
    80001b48:	00094417          	auipc	s0,0x94
    80001b4c:	e7840413          	addi	s0,s0,-392 # 800959c0 <sprint_buf>
    80001b50:	00f484b3          	add	s1,s1,a5
    80001b54:	00044503          	lbu	a0,0(s0)
    80001b58:	00140413          	addi	s0,s0,1
    80001b5c:	c88ff0ef          	jal	ra,80000fe4 <putch>
    80001b60:	fe941ae3          	bne	s0,s1,80001b54 <printf+0x7c>
    80001b64:	02813083          	ld	ra,40(sp)
    80001b68:	02013403          	ld	s0,32(sp)
    80001b6c:	01813483          	ld	s1,24(sp)
    80001b70:	00090513          	mv	a0,s2
    80001b74:	01013903          	ld	s2,16(sp)
    80001b78:	07010113          	addi	sp,sp,112
    80001b7c:	00008067          	ret
    80001b80:	00002517          	auipc	a0,0x2
    80001b84:	84850513          	addi	a0,a0,-1976 # 800033c8 <names+0x408>
    80001b88:	f51ff0ef          	jal	ra,80001ad8 <printf>
    80001b8c:	10200613          	li	a2,258
    80001b90:	00002597          	auipc	a1,0x2
    80001b94:	85858593          	addi	a1,a1,-1960 # 800033e8 <names+0x428>
    80001b98:	00001517          	auipc	a0,0x1
    80001b9c:	e6850513          	addi	a0,a0,-408 # 80002a00 <tests+0x8e0>
    80001ba0:	f39ff0ef          	jal	ra,80001ad8 <printf>
    80001ba4:	00100513          	li	a0,1
    80001ba8:	c4cff0ef          	jal	ra,80000ff4 <halt>

0000000080001bac <vsprintf>:
    80001bac:	fb010113          	addi	sp,sp,-80
    80001bb0:	04813023          	sd	s0,64(sp)
    80001bb4:	04113423          	sd	ra,72(sp)
    80001bb8:	02913c23          	sd	s1,56(sp)
    80001bbc:	03213823          	sd	s2,48(sp)
    80001bc0:	03313423          	sd	s3,40(sp)
    80001bc4:	03413023          	sd	s4,32(sp)
    80001bc8:	01513c23          	sd	s5,24(sp)
    80001bcc:	01613823          	sd	s6,16(sp)
    80001bd0:	0005c783          	lbu	a5,0(a1)
    80001bd4:	00050413          	mv	s0,a0
    80001bd8:	38078263          	beqz	a5,80001f5c <vsprintf+0x3b0>
    80001bdc:	00058813          	mv	a6,a1
    80001be0:	00060993          	mv	s3,a2
    80001be4:	02500913          	li	s2,37
    80001be8:	03000a93          	li	s5,48
    80001bec:	00002b17          	auipc	s6,0x2
    80001bf0:	838b0b13          	addi	s6,s6,-1992 # 80003424 <names+0x464>
    80001bf4:	00002497          	auipc	s1,0x2
    80001bf8:	8b448493          	addi	s1,s1,-1868 # 800034a8 <names+0x4e8>
    80001bfc:	03900a13          	li	s4,57
    80001c00:	05278663          	beq	a5,s2,80001c4c <vsprintf+0xa0>
    80001c04:	00f50023          	sb	a5,0(a0)
    80001c08:	00150513          	addi	a0,a0,1
    80001c0c:	00184783          	lbu	a5,1(a6)
    80001c10:	00180813          	addi	a6,a6,1
    80001c14:	fe0796e3          	bnez	a5,80001c00 <vsprintf+0x54>
    80001c18:	4085043b          	subw	s0,a0,s0
    80001c1c:	00050023          	sb	zero,0(a0)
    80001c20:	04813083          	ld	ra,72(sp)
    80001c24:	00040513          	mv	a0,s0
    80001c28:	04013403          	ld	s0,64(sp)
    80001c2c:	03813483          	ld	s1,56(sp)
    80001c30:	03013903          	ld	s2,48(sp)
    80001c34:	02813983          	ld	s3,40(sp)
    80001c38:	02013a03          	ld	s4,32(sp)
    80001c3c:	01813a83          	ld	s5,24(sp)
    80001c40:	01013b03          	ld	s6,16(sp)
    80001c44:	05010113          	addi	sp,sp,80
    80001c48:	00008067          	ret
    80001c4c:	00000793          	li	a5,0
    80001c50:	02300713          	li	a4,35
    80001c54:	00184583          	lbu	a1,1(a6)
    80001c58:	00180813          	addi	a6,a6,1
    80001c5c:	00e58c63          	beq	a1,a4,80001c74 <vsprintf+0xc8>
    80001c60:	01559e63          	bne	a1,s5,80001c7c <vsprintf+0xd0>
    80001c64:	00184583          	lbu	a1,1(a6)
    80001c68:	0017e793          	ori	a5,a5,1
    80001c6c:	00180813          	addi	a6,a6,1
    80001c70:	fee598e3          	bne	a1,a4,80001c60 <vsprintf+0xb4>
    80001c74:	0207e793          	ori	a5,a5,32
    80001c78:	fddff06f          	j	80001c54 <vsprintf+0xa8>
    80001c7c:	fd05871b          	addiw	a4,a1,-48
    80001c80:	0ff77713          	zext.b	a4,a4
    80001c84:	00900613          	li	a2,9
    80001c88:	fff00693          	li	a3,-1
    80001c8c:	1ce67263          	bgeu	a2,a4,80001e50 <vsprintf+0x2a4>
    80001c90:	02e00613          	li	a2,46
    80001c94:	fff00713          	li	a4,-1
    80001c98:	16c58463          	beq	a1,a2,80001e00 <vsprintf+0x254>
    80001c9c:	06c00613          	li	a2,108
    80001ca0:	fff00893          	li	a7,-1
    80001ca4:	02c58663          	beq	a1,a2,80001cd0 <vsprintf+0x124>
    80001ca8:	1f258863          	beq	a1,s2,80001e98 <vsprintf+0x2ec>
    80001cac:	fa85859b          	addiw	a1,a1,-88
    80001cb0:	0ff5f593          	zext.b	a1,a1
    80001cb4:	02000613          	li	a2,32
    80001cb8:	2ab66663          	bltu	a2,a1,80001f64 <vsprintf+0x3b8>
    80001cbc:	00259593          	slli	a1,a1,0x2
    80001cc0:	016585b3          	add	a1,a1,s6
    80001cc4:	0005a603          	lw	a2,0(a1)
    80001cc8:	01660633          	add	a2,a2,s6
    80001ccc:	00060067          	jr	a2
    80001cd0:	00184603          	lbu	a2,1(a6)
    80001cd4:	1ab60a63          	beq	a2,a1,80001e88 <vsprintf+0x2dc>
    80001cd8:	00180813          	addi	a6,a6,1
    80001cdc:	1b260e63          	beq	a2,s2,80001e98 <vsprintf+0x2ec>
    80001ce0:	fa86061b          	addiw	a2,a2,-88
    80001ce4:	0ff67613          	zext.b	a2,a2
    80001ce8:	02000593          	li	a1,32
    80001cec:	26c5ec63          	bltu	a1,a2,80001f64 <vsprintf+0x3b8>
    80001cf0:	00261613          	slli	a2,a2,0x2
    80001cf4:	00960633          	add	a2,a2,s1
    80001cf8:	00062603          	lw	a2,0(a2)
    80001cfc:	00960633          	add	a2,a2,s1
    80001d00:	00060067          	jr	a2
    80001d04:	0009b603          	ld	a2,0(s3)
    80001d08:	00898993          	addi	s3,s3,8
    80001d0c:	00060793          	mv	a5,a2
    80001d10:	00e605b3          	add	a1,a2,a4
    80001d14:	00071863          	bnez	a4,80001d24 <vsprintf+0x178>
    80001d18:	2740006f          	j	80001f8c <vsprintf+0x3e0>
    80001d1c:	00178793          	addi	a5,a5,1
    80001d20:	00b78663          	beq	a5,a1,80001d2c <vsprintf+0x180>
    80001d24:	0007c703          	lbu	a4,0(a5)
    80001d28:	fe071ae3          	bnez	a4,80001d1c <vsprintf+0x170>
    80001d2c:	40c787bb          	subw	a5,a5,a2
    80001d30:	04d7d263          	bge	a5,a3,80001d74 <vsprintf+0x1c8>
    80001d34:	00050713          	mv	a4,a0
    80001d38:	0006889b          	sext.w	a7,a3
    80001d3c:	02000313          	li	t1,32
    80001d40:	00170713          	addi	a4,a4,1
    80001d44:	40e505bb          	subw	a1,a0,a4
    80001d48:	011585bb          	addw	a1,a1,a7
    80001d4c:	fe670fa3          	sb	t1,-1(a4)
    80001d50:	feb7c8e3          	blt	a5,a1,80001d40 <vsprintf+0x194>
    80001d54:	00100713          	li	a4,1
    80001d58:	00d7dc63          	bge	a5,a3,80001d70 <vsprintf+0x1c4>
    80001d5c:	fff8871b          	addiw	a4,a7,-1
    80001d60:	40f7073b          	subw	a4,a4,a5
    80001d64:	02071713          	slli	a4,a4,0x20
    80001d68:	02075713          	srli	a4,a4,0x20
    80001d6c:	00170713          	addi	a4,a4,1
    80001d70:	00e50533          	add	a0,a0,a4
    80001d74:	e8f05ce3          	blez	a5,80001c0c <vsprintf+0x60>
    80001d78:	00f605b3          	add	a1,a2,a5
    80001d7c:	00050713          	mv	a4,a0
    80001d80:	00064683          	lbu	a3,0(a2)
    80001d84:	00160613          	addi	a2,a2,1
    80001d88:	00170713          	addi	a4,a4,1
    80001d8c:	fed70fa3          	sb	a3,-1(a4)
    80001d90:	fec598e3          	bne	a1,a2,80001d80 <vsprintf+0x1d4>
    80001d94:	00f50533          	add	a0,a0,a5
    80001d98:	e75ff06f          	j	80001c0c <vsprintf+0x60>
    80001d9c:	fff00613          	li	a2,-1
    80001da0:	14c68663          	beq	a3,a2,80001eec <vsprintf+0x340>
    80001da4:	0009b583          	ld	a1,0(s3)
    80001da8:	01000613          	li	a2,16
    80001dac:	01013423          	sd	a6,8(sp)
    80001db0:	b9dff0ef          	jal	ra,8000194c <number>
    80001db4:	00813803          	ld	a6,8(sp)
    80001db8:	00898993          	addi	s3,s3,8
    80001dbc:	e51ff06f          	j	80001c0c <vsprintf+0x60>
    80001dc0:	00100793          	li	a5,1
    80001dc4:	18d7d863          	bge	a5,a3,80001f54 <vsprintf+0x3a8>
    80001dc8:	ffe6879b          	addiw	a5,a3,-2
    80001dcc:	02079793          	slli	a5,a5,0x20
    80001dd0:	0207d793          	srli	a5,a5,0x20
    80001dd4:	00178793          	addi	a5,a5,1
    80001dd8:	00f507b3          	add	a5,a0,a5
    80001ddc:	02000713          	li	a4,32
    80001de0:	00150513          	addi	a0,a0,1
    80001de4:	fee50fa3          	sb	a4,-1(a0)
    80001de8:	fea79ce3          	bne	a5,a0,80001de0 <vsprintf+0x234>
    80001dec:	0009a703          	lw	a4,0(s3)
    80001df0:	00178513          	addi	a0,a5,1
    80001df4:	00898993          	addi	s3,s3,8
    80001df8:	00e78023          	sb	a4,0(a5)
    80001dfc:	e11ff06f          	j	80001c0c <vsprintf+0x60>
    80001e00:	00184583          	lbu	a1,1(a6)
    80001e04:	00900893          	li	a7,9
    80001e08:	00180813          	addi	a6,a6,1
    80001e0c:	fd05861b          	addiw	a2,a1,-48
    80001e10:	0ff67613          	zext.b	a2,a2
    80001e14:	00000713          	li	a4,0
    80001e18:	e8c8e2e3          	bltu	a7,a2,80001c9c <vsprintf+0xf0>
    80001e1c:	0005889b          	sext.w	a7,a1
    80001e20:	02f00313          	li	t1,47
    80001e24:	0027161b          	slliw	a2,a4,0x2
    80001e28:	00184583          	lbu	a1,1(a6)
    80001e2c:	00e6073b          	addw	a4,a2,a4
    80001e30:	0017171b          	slliw	a4,a4,0x1
    80001e34:	0117073b          	addw	a4,a4,a7
    80001e38:	00180813          	addi	a6,a6,1
    80001e3c:	fd07071b          	addiw	a4,a4,-48
    80001e40:	0005889b          	sext.w	a7,a1
    80001e44:	e4b35ce3          	bge	t1,a1,80001c9c <vsprintf+0xf0>
    80001e48:	fd1a5ee3          	bge	s4,a7,80001e24 <vsprintf+0x278>
    80001e4c:	e51ff06f          	j	80001c9c <vsprintf+0xf0>
    80001e50:	0005861b          	sext.w	a2,a1
    80001e54:	00000693          	li	a3,0
    80001e58:	02f00893          	li	a7,47
    80001e5c:	0026971b          	slliw	a4,a3,0x2
    80001e60:	00184583          	lbu	a1,1(a6)
    80001e64:	00d7073b          	addw	a4,a4,a3
    80001e68:	0017171b          	slliw	a4,a4,0x1
    80001e6c:	00c7073b          	addw	a4,a4,a2
    80001e70:	00180813          	addi	a6,a6,1
    80001e74:	fd07069b          	addiw	a3,a4,-48
    80001e78:	0005861b          	sext.w	a2,a1
    80001e7c:	e0b8dae3          	bge	a7,a1,80001c90 <vsprintf+0xe4>
    80001e80:	fcca5ee3          	bge	s4,a2,80001e5c <vsprintf+0x2b0>
    80001e84:	e0dff06f          	j	80001c90 <vsprintf+0xe4>
    80001e88:	00284583          	lbu	a1,2(a6)
    80001e8c:	07100893          	li	a7,113
    80001e90:	00280813          	addi	a6,a6,2
    80001e94:	e1259ce3          	bne	a1,s2,80001cac <vsprintf+0x100>
    80001e98:	01250023          	sb	s2,0(a0)
    80001e9c:	00150513          	addi	a0,a0,1
    80001ea0:	d6dff06f          	j	80001c0c <vsprintf+0x60>
    80001ea4:	01000613          	li	a2,16
    80001ea8:	07100593          	li	a1,113
    80001eac:	00898313          	addi	t1,s3,8
    80001eb0:	02b88863          	beq	a7,a1,80001ee0 <vsprintf+0x334>
    80001eb4:	0009e583          	lwu	a1,0(s3)
    80001eb8:	00030993          	mv	s3,t1
    80001ebc:	01013423          	sd	a6,8(sp)
    80001ec0:	a8dff0ef          	jal	ra,8000194c <number>
    80001ec4:	00813803          	ld	a6,8(sp)
    80001ec8:	d45ff06f          	j	80001c0c <vsprintf+0x60>
    80001ecc:	07100593          	li	a1,113
    80001ed0:	0407e793          	ori	a5,a5,64
    80001ed4:	01000613          	li	a2,16
    80001ed8:	00898313          	addi	t1,s3,8
    80001edc:	fcb89ce3          	bne	a7,a1,80001eb4 <vsprintf+0x308>
    80001ee0:	0009b583          	ld	a1,0(s3)
    80001ee4:	00030993          	mv	s3,t1
    80001ee8:	fd5ff06f          	j	80001ebc <vsprintf+0x310>
    80001eec:	0009b583          	ld	a1,0(s3)
    80001ef0:	0017e793          	ori	a5,a5,1
    80001ef4:	01000693          	li	a3,16
    80001ef8:	01000613          	li	a2,16
    80001efc:	01013423          	sd	a6,8(sp)
    80001f00:	a4dff0ef          	jal	ra,8000194c <number>
    80001f04:	00813803          	ld	a6,8(sp)
    80001f08:	00898993          	addi	s3,s3,8
    80001f0c:	d01ff06f          	j	80001c0c <vsprintf+0x60>
    80001f10:	00800613          	li	a2,8
    80001f14:	f95ff06f          	j	80001ea8 <vsprintf+0x2fc>
    80001f18:	00a00613          	li	a2,10
    80001f1c:	f8dff06f          	j	80001ea8 <vsprintf+0x2fc>
    80001f20:	00200613          	li	a2,2
    80001f24:	f85ff06f          	j	80001ea8 <vsprintf+0x2fc>
    80001f28:	00200613          	li	a2,2
    80001f2c:	0009b583          	ld	a1,0(s3)
    80001f30:	00898993          	addi	s3,s3,8
    80001f34:	f89ff06f          	j	80001ebc <vsprintf+0x310>
    80001f38:	00a00613          	li	a2,10
    80001f3c:	ff1ff06f          	j	80001f2c <vsprintf+0x380>
    80001f40:	0407e793          	ori	a5,a5,64
    80001f44:	01000613          	li	a2,16
    80001f48:	fe5ff06f          	j	80001f2c <vsprintf+0x380>
    80001f4c:	01000613          	li	a2,16
    80001f50:	fddff06f          	j	80001f2c <vsprintf+0x380>
    80001f54:	00050793          	mv	a5,a0
    80001f58:	e95ff06f          	j	80001dec <vsprintf+0x240>
    80001f5c:	00000413          	li	s0,0
    80001f60:	cbdff06f          	j	80001c1c <vsprintf+0x70>
    80001f64:	0d900613          	li	a2,217
    80001f68:	00001597          	auipc	a1,0x1
    80001f6c:	48058593          	addi	a1,a1,1152 # 800033e8 <names+0x428>
    80001f70:	00001517          	auipc	a0,0x1
    80001f74:	a9050513          	addi	a0,a0,-1392 # 80002a00 <tests+0x8e0>
    80001f78:	b61ff0ef          	jal	ra,80001ad8 <printf>
    80001f7c:	00100513          	li	a0,1
    80001f80:	874ff0ef          	jal	ra,80000ff4 <halt>
    80001f84:	00800613          	li	a2,8
    80001f88:	fa5ff06f          	j	80001f2c <vsprintf+0x380>
    80001f8c:	00000793          	li	a5,0
    80001f90:	dad042e3          	bgtz	a3,80001d34 <vsprintf+0x188>
    80001f94:	c79ff06f          	j	80001c0c <vsprintf+0x60>

0000000080001f98 <rand>:
    80001f98:	0000f697          	auipc	a3,0xf
    80001f9c:	7e068693          	addi	a3,a3,2016 # 80011778 <next>
    80001fa0:	0006b783          	ld	a5,0(a3)
    80001fa4:	41c65737          	lui	a4,0x41c65
    80001fa8:	e6d70713          	addi	a4,a4,-403 # 41c64e6d <_entry_offset+0x41c64e6d>
    80001fac:	02e787b3          	mul	a5,a5,a4
    80001fb0:	00003737          	lui	a4,0x3
    80001fb4:	03970713          	addi	a4,a4,57 # 3039 <_entry_offset+0x3039>
    80001fb8:	00e787b3          	add	a5,a5,a4
    80001fbc:	02179513          	slli	a0,a5,0x21
    80001fc0:	00f6b023          	sd	a5,0(a3)
    80001fc4:	03155513          	srli	a0,a0,0x31
    80001fc8:	00008067          	ret
